     1                                 %line 1+1 stage2.asm
     2                                 
     3                                 [global progr]
     4                                 [global R0]
     5                                 %line 3+0 stage2.asm
     6                                 [global R1]
     7                                 [global R2]
     8                                 [global R3]
     9                                 [global R4]
    10                                 [global R5]
    11                                 [global R6]
    12                                 [global R7]
    13                                 [global R8]
    14                                 [global R9]
    15                                 %line 4+1 stage2.asm
    16                                 [global RA]
    17                                 %line 4+0 stage2.asm
    18                                 [global RB]
    19                                 [global RC]
    20                                 [global RD]
    21                                 [global RE]
    22                                 [global RF]
    23                                 [global RG]
    24                                 [global RH]
    25                                 [global RI]
    26                                 [global RJ]
    27                                 [global RK]
    28                                 [global RL]
    29                                 [global RM]
    30                                 %line 5+1 stage2.asm
    31                                 [global RN]
    32                                 %line 5+0 stage2.asm
    33                                 [global RO]
    34                                 [global RP]
    35                                 [global RQ]
    36                                 [global RR]
    37                                 [global RS]
    38                                 [global RT]
    39                                 [global RU]
    40                                 [global RV]
    41                                 [global RR]
    42                                 [global RX]
    43                                 [global RY]
    44                                 [global RZ]
    45                                 [global list]
    46                                 %line 6+1 stage2.asm
    47                                 [extern LBR]
    48                                 %line 6+0 stage2.asm
    49                                 [extern LBW]
    50                                 [extern LINE]
    51                                 [extern MB]
    52                                 %line 7+1 stage2.asm
    53                                 [extern exit]
    54                                 %line 7+0 stage2.asm
    55                                 [extern iwrch]
    56                                 [extern iread]
    57                                 [extern iwrite]
    58                                 [extern icntl]
    59                                 [extern iprnt]
    60                                 [extern ioop]
    61                                 %line 8+1 stage2.asm
    62                                 [section .data]
    63 00000000 0000                   R0: dw 0
    64 00000002 00000000                dw 0,0
    65 00000006 0100                   R1: dw 1
    66 00000008 01000100                dw 1,1
    67 0000000C 0200                   R2: dw 2
    68 0000000E 02000200                dw 2,2
    69 00000012 0300                   R3: dw 3
    70 00000014 03000300                dw 3,3
    71 00000018 0000                   R4: dw 0
    72 0000001A 04000000                dw 4,0
    73 0000001E 0A00                   R5: dw 10
    74 00000020 05000000                dw 5,0
    75 00000024 0000                   R6: dw 0
    76 00000026 06000000                dw 6,0
    77 0000002A 0400                   R7: dw 4
    78 0000002C 07000000                dw 7,0
    79 00000030 0000                   R8: dw 0
    80 00000032 08000000                dw 8,0
    81 00000036 3075                   R9: dw listend-list
    82 00000038 09000000                dw 9,0
    83 0000003C 000000000000           RA: dw 0,0,0
    84 00000042 000000000000           RB: dw 0,0,0
    85 00000048 000000000000           RC: dw 0,0,0
    86 0000004E 000000000000           RD: dw 0,0,0
    87 00000054 000000000000           RE: dw 0,0,0
    88 0000005A 000000000000           RF: dw 0,0,0
    89 00000060 000000000000           RG: dw 0,0,0
    90 00000066 000000000000           RH: dw 0,0,0
    91 0000006C 000000000000           RI: dw 0,0,0
    92 00000072 000000000000           RJ: dw 0,0,0
    93 00000078 000000000000           RK: dw 0,0,0
    94 0000007E 000000000000           RL: dw 0,0,0
    95 00000084 000000000000           RM: dw 0,0,0
    96 0000008A 000000000000           RN: dw 0,0,0
    97 00000090 000000000000           RO: dw 0,0,0
    98 00000096 000000000000           RP: dw 0,0,0
    99 0000009C 000000000000           RQ: dw 0,0,0
   100 000000A2 000000000000           RR: dw 0,0,0
   101 000000A8 000000000000           RS: dw 0,0,0
   102 000000AE 000000000000           RT: dw 0,0,0
   103 000000B4 000000000000           RU: dw 0,0,0
   104 000000BA 000000000000           RV: dw 0,0,0
   105 000000C0 000000000000           RW: dw 0,0,0
   106 000000C6 000000000000           RX: dw 0,0,0
   107 000000CC 000000000000           RY: dw 0,0,0
   108 000000D2 000000000000           RZ: dw 0,0,0
   109                                 [section .bss]
   110 00000000 <gap>                  list: resw 15000
   111                                 listend:
   112                                 [section .text]
   113                                 progr:
   114 00000000 55                      push EBP
   115 00000001 89E5                    mov EBP,ESP
   116                                 
   117 00000003 66A1[04000000]          mov AX,[R0+4]
   118 00000009 66A3[04000000]          mov [RI+4],AX
   119                                 
   120 0000000F 66A1[02000000]          mov AX,[R1+2]
   121 00000015 660305[02000000]        add AX,[R0+2]
   122 0000001C 66A3[02000000]          mov [RI+2],AX
   123                                 
   124 00000022 66A1[00000000]          mov AX,[R0]
   125 00000028 660305[00000000]        add AX,[R0]
   126 0000002F 66A3[00000000]          mov [RI],AX
   127                                 
   128 00000035 66A1[02000000]          mov AX,[RI+2]
   129 0000003B 98                      cwde
   130 0000003C 890424                  mov [ESP],EAX
   131 0000003F E8(F6FFFFFF)            call iread
   132 00000044 66A3[04000000]          mov [RI+4],AX
   133                                 
   134 0000004A 66A1[04000000]          mov AX,[RI+4]
   135 00000050 663B05[04000000]        cmp AX,[R0+4]
   136 00000057 0F8510520000            jnz L98
   137                                 
   138 0000005D 8B1D[00000000]          mov EBX,[LBR]
   139 00000063 8A83[00000000]          mov AL,[LINE+EBX]
   140 00000069 6698                    cbw
   141 0000006B 66A3[02000000]          mov [RA+2],AX
   142 00000071 43                      inc EBX
   143 00000072 891D[00000000]          mov [LBR],EBX
   144                                 
   145 00000078 66A1[00000000]          mov AX,[R8]
   146 0000007E 660305[00000000]        add AX,[R0]
   147 00000085 66A3[00000000]          mov [RA],AX
   148                                 
   149 0000008B 66A1[00000000]          mov AX,[RA]
   150 00000091 98                      cwde
   151 00000092 05[00000000]            add EAX,list
   152 00000097 89C3                    mov EBX,EAX
   153 00000099 66A1[02000000]          mov AX,[RI+2]
   154 0000009F 66C1E002                sal AX,2
   155 000000A3 660B05[04000000]        or AX,[RI+4]
   156 000000AA 668903                  mov [EBX],AX
   157 000000AD 66A1[00000000]          mov AX,[RI]
   158 000000B3 66894302                mov [EBX+2],AX
   159                                 
   160 000000B7 66A1[04000000]          mov AX,[R2+4]
   161 000000BD 66A3[04000000]          mov [RB+4],AX
   162                                 
   163 000000C3 8B1D[00000000]          mov EBX,[LBR]
   164 000000C9 8A83[00000000]          mov AL,[LINE+EBX]
   165 000000CF 6698                    cbw
   166 000000D1 66A3[02000000]          mov [RB+2],AX
   167 000000D7 43                      inc EBX
   168 000000D8 891D[00000000]          mov [LBR],EBX
   169                                 
   170 000000DE 8B1D[00000000]          mov EBX,[LBR]
   171 000000E4 8A83[00000000]          mov AL,[LINE+EBX]
   172 000000EA 6698                    cbw
   173 000000EC 66A3[02000000]          mov [RC+2],AX
   174 000000F2 43                      inc EBX
   175 000000F3 891D[00000000]          mov [LBR],EBX
   176                                 
   177 000000F9 66A1[00000000]          mov AX,[R9]
   178 000000FF 660305[00000000]        add AX,[R0]
   179 00000106 66A3[00000000]          mov [RC],AX
   180                                 
   181 0000010C 8B1D[00000000]          mov EBX,[LBR]
   182 00000112 8A83[00000000]          mov AL,[LINE+EBX]
   183 00000118 6698                    cbw
   184 0000011A 66A3[02000000]          mov [RD+2],AX
   185 00000120 43                      inc EBX
   186 00000121 891D[00000000]          mov [LBR],EBX
   187                                 
   188 00000127 8B1D[00000000]          mov EBX,[LBR]
   189 0000012D 8A83[00000000]          mov AL,[LINE+EBX]
   190 00000133 6698                    cbw
   191 00000135 66A3[02000000]          mov [RE+2],AX
   192 0000013B 43                      inc EBX
   193 0000013C 891D[00000000]          mov [LBR],EBX
   194                                 
   195 00000142 66A1[02000000]          mov AX,[RE+2]
   196 00000148 66A3[00000000]          mov [RE],AX
   197                                 
   198 0000014E 8B1D[00000000]          mov EBX,[LBR]
   199 00000154 8A83[00000000]          mov AL,[LINE+EBX]
   200 0000015A 6698                    cbw
   201 0000015C 66A3[02000000]          mov [RF+2],AX
   202 00000162 43                      inc EBX
   203 00000163 891D[00000000]          mov [LBR],EBX
   204                                 
   205 00000169 66A1[00000000]          mov AX,[RA]
   206 0000016F 660305[00000000]        add AX,[R7]
   207 00000176 66A3[00000000]          mov [RF],AX
   208                                 
   209 0000017C 66A1[00000000]          mov AX,[RF]
   210 00000182 98                      cwde
   211 00000183 05[00000000]            add EAX,list
   212 00000188 89C3                    mov EBX,EAX
   213 0000018A 66A1[02000000]          mov AX,[R0+2]
   214 00000190 66C1E002                sal AX,2
   215 00000194 660B05[04000000]        or AX,[R0+4]
   216 0000019B 668903                  mov [EBX],AX
   217 0000019E 66A1[00000000]          mov AX,[R0]
   218 000001A4 66894302                mov [EBX+2],AX
   219                                 
   220 000001A8 66A1[02000000]          mov AX,[R0+2]
   221 000001AE 660305[02000000]        add AX,[R0+2]
   222 000001B5 66A3[02000000]          mov [RG+2],AX
   223                                 
   224 000001BB 66A1[00000000]          mov AX,[R5]
   225 000001C1 66F72D[00000000]        imul word [R7]
   226 000001C8 66A3[00000000]          mov [RH],AX
   227                                 
   228 000001CE 66A1[04000000]          mov AX,[R1+4]
   229 000001D4 66A3[04000000]          mov [RJ+4],AX
   230                                 
   231 000001DA 66A1[00000000]          mov AX,[R0]
   232 000001E0 660305[00000000]        add AX,[R0]
   233 000001E7 66A3[00000000]          mov [RJ],AX
   234                                 
   235 000001ED 66A1[04000000]          mov AX,[R1+4]
   236 000001F3 66A3[04000000]          mov [RL+4],AX
   237                                 
   238 000001F9 66A1[02000000]          mov AX,[R0+2]
   239 000001FF 662B05[02000000]        sub AX,[R1+2]
   240 00000206 66A3[02000000]          mov [RL+2],AX
   241                                 
   242 0000020C 66A1[00000000]          mov AX,[R0]
   243 00000212 660305[00000000]        add AX,[R0]
   244 00000219 66A3[00000000]          mov [RL],AX
   245                                 
   246 0000021F 8B1D[00000000]          mov EBX,[LBR]
   247 00000225 8A83[00000000]          mov AL,[LINE+EBX]
   248 0000022B 6698                    cbw
   249 0000022D 66A3[02000000]          mov [RM+2],AX
   250 00000233 43                      inc EBX
   251 00000234 891D[00000000]          mov [LBR],EBX
   252                                 
   253 0000023A 66A1[00000000]          mov AX,[R0]
   254 00000240 660305[00000000]        add AX,[R0]
   255 00000247 66A3[00000000]          mov [RM],AX
   256                                 
   257 0000024D 66A1[04000000]          mov AX,[R0+4]
   258 00000253 66A3[04000000]          mov [RN+4],AX
   259                                 
   260 00000259 8B1D[00000000]          mov EBX,[LBR]
   261 0000025F 8A83[00000000]          mov AL,[LINE+EBX]
   262 00000265 6698                    cbw
   263 00000267 66A3[02000000]          mov [RN+2],AX
   264 0000026D 43                      inc EBX
   265 0000026E 891D[00000000]          mov [LBR],EBX
   266                                 
   267 00000274 66A1[04000000]          mov AX,[R0+4]
   268 0000027A 66A3[04000000]          mov [RO+4],AX
   269                                 
   270 00000280 8B1D[00000000]          mov EBX,[LBR]
   271 00000286 8A83[00000000]          mov AL,[LINE+EBX]
   272 0000028C 6698                    cbw
   273 0000028E 66A3[02000000]          mov [RO+2],AX
   274 00000294 43                      inc EBX
   275 00000295 891D[00000000]          mov [LBR],EBX
   276                                 
   277 0000029B 8B1D[00000000]          mov EBX,[LBR]
   278 000002A1 8A83[00000000]          mov AL,[LINE+EBX]
   279 000002A7 6698                    cbw
   280 000002A9 66A3[02000000]          mov [RP+2],AX
   281 000002AF 43                      inc EBX
   282 000002B0 891D[00000000]          mov [LBR],EBX
   283                                 
   284 000002B6 8B1D[00000000]          mov EBX,[LBR]
   285 000002BC 8A83[00000000]          mov AL,[LINE+EBX]
   286 000002C2 6698                    cbw
   287 000002C4 66A3[02000000]          mov [RQ+2],AX
   288 000002CA 43                      inc EBX
   289 000002CB 891D[00000000]          mov [LBR],EBX
   290                                 
   291 000002D1 8B1D[00000000]          mov EBX,[LBR]
   292 000002D7 8A83[00000000]          mov AL,[LINE+EBX]
   293 000002DD 6698                    cbw
   294 000002DF 66A3[02000000]          mov [RR+2],AX
   295 000002E5 43                      inc EBX
   296 000002E6 891D[00000000]          mov [LBR],EBX
   297                                 
   298 000002EC 66A1[00000000]          mov AX,[R0]
   299 000002F2 660305[00000000]        add AX,[R0]
   300 000002F9 66A3[00000000]          mov [RR],AX
   301                                 
   302 000002FF 66A1[00000000]          mov AX,[R7]
   303 00000305 660305[00000000]        add AX,[R7]
   304 0000030C 66A3[00000000]          mov [R4],AX
   305                                 
   306 00000312 66A1[00000000]          mov AX,[RF]
   307 00000318 660305[00000000]        add AX,[R7]
   308 0000031F 66A3[00000000]          mov [R8],AX
   309                                 
   310 00000325 B8[00000000]            mov EAX,G100
   311 0000032A 2D[00000000]            sub EAX,progr
   312 0000032F 66A3[00000000]          mov [RD],AX
   313 00000335 EBFE                    jmp L01
   314                                 G100:
   315                                 
   316                                 
   317                                 L01:
   318                                 
   319 00000337 66A1[00000000]          mov AX,[RA]
   320 0000033D 98                      cwde
   321 0000033E 05[00000000]            add EAX,list
   322 00000343 89C3                    mov EBX,EAX
   323 00000345 668B4302                mov AX,[EBX+2]
   324 00000349 66A3[00000000]          mov [RI],AX
   325 0000034F 668B03                  mov AX,[EBX]
   326 00000352 6689C2                  mov DX,AX
   327 00000355 6683E203                and DX,3
   328 00000359 668915[04000000]        mov [RI+4],DX
   329 00000360 66C1F802                sar AX,2
   330 00000364 66A3[02000000]          mov [RI+2],AX
   331                                 
   332 0000036A 66A1[02000000]          mov AX,[RI+2]
   333 00000370 98                      cwde
   334 00000371 890424                  mov [ESP],EAX
   335 00000374 E8(F6FFFFFF)            call iread
   336 00000379 66A3[04000000]          mov [RI+4],AX
   337                                 
   338 0000037F 66A1[04000000]          mov AX,[RI+4]
   339 00000385 663B05[04000000]        cmp AX,[R0+4]
   340 0000038C 0F85DB4E0000            jnz L98
   341                                 
   342 00000392 66A1[00000000]          mov AX,[RC]
   343 00000398 660305[00000000]        add AX,[R0]
   344 0000039F 66A3[00000000]          mov [RI],AX
   345                                 
   346 000003A5 66A1[02000000]          mov AX,[R0+2]
   347 000003AB 660305[02000000]        add AX,[R0+2]
   348 000003B2 66A3[02000000]          mov [RY+2],AX
   349                                 
   350 000003B8 66A1[00000000]          mov AX,[RC]
   351 000003BE 660305[00000000]        add AX,[R0]
   352 000003C5 66A3[00000000]          mov [RY],AX
   353                                 
   354 000003CB 66A1[00000000]          mov AX,[RM]
   355 000003D1 663B05[00000000]        cmp AX,[R0]
   356 000003D8 7416                    jz L02
   357                                 
   358 000003DA 66A1[00000000]          mov AX,[RM]
   359 000003E0 662B05[00000000]        sub AX,[R1]
   360 000003E7 66A3[00000000]          mov [RM],AX
   361                                 
   362 000003ED E940FFFFFF              jmp L01
   363                                 
   364                                 
   365                                 L02:
   366                                 
   367 000003F2 66A1[00000000]          mov AX,[RI]
   368 000003F8 660305[00000000]        add AX,[R0]
   369 000003FF 66A3[00000000]          mov [R9],AX
   370                                 
   371 00000405 8B1D[00000000]          mov EBX,[LBR]
   372 0000040B 8A83[00000000]          mov AL,[LINE+EBX]
   373 00000411 6698                    cbw
   374 00000413 66A3[02000000]          mov [RI+2],AX
   375 00000419 43                      inc EBX
   376 0000041A 891D[00000000]          mov [LBR],EBX
   377                                 
   378 00000420 66A1[00000000]          mov AX,[R9]
   379 00000426 662B05[00000000]        sub AX,[R7]
   380 0000042D 66A3[00000000]          mov [RI],AX
   381                                 
   382 00000433 66A1[00000000]          mov AX,[R8]
   383 00000439 663B05[00000000]        cmp AX,[RI]
   384 00000440 0F8DDA4D0000            jge L97
   385                                 
   386 00000446 66A1[00000000]          mov AX,[R9]
   387 0000044C 98                      cwde
   388 0000044D 05[00000000]            add EAX,list
   389 00000452 89C3                    mov EBX,EAX
   390 00000454 66A1[02000000]          mov AX,[RI+2]
   391 0000045A 66C1E002                sal AX,2
   392 0000045E 660B05[04000000]        or AX,[RI+4]
   393 00000465 668903                  mov [EBX],AX
   394 00000468 66A1[00000000]          mov AX,[RI]
   395 0000046E 66894302                mov [EBX+2],AX
   396                                 
   397 00000472 66A1[02000000]          mov AX,[RI+2]
   398 00000478 663B05[02000000]        cmp AX,[RL+2]
   399 0000047F 0F8406010000            jz L04
   400                                 
   401 00000485 66A1[02000000]          mov AX,[RI+2]
   402 0000048B 663B05[02000000]        cmp AX,[RA+2]
   403 00000492 7468                    jz L03
   404                                 
   405 00000494 66A1[02000000]          mov AX,[RY+2]
   406 0000049A 660305[02000000]        add AX,[R1+2]
   407 000004A1 66A3[02000000]          mov [RY+2],AX
   408                                 
   409 000004A7 66A1[02000000]          mov AX,[RI+2]
   410 000004AD 663B05[02000000]        cmp AX,[RB+2]
   411 000004B4 0F8532FFFFFF            jnz L02
   412                                 
   413 000004BA 66A1[00000000]          mov AX,[RI]
   414 000004C0 660305[00000000]        add AX,[R0]
   415 000004C7 66A3[00000000]          mov [RB],AX
   416                                 
   417 000004CD 66A1[00000000]          mov AX,[R9]
   418 000004D3 98                      cwde
   419 000004D4 05[00000000]            add EAX,list
   420 000004D9 89C3                    mov EBX,EAX
   421 000004DB 66A1[02000000]          mov AX,[RB+2]
   422 000004E1 66C1E002                sal AX,2
   423 000004E5 660B05[04000000]        or AX,[RB+4]
   424 000004EC 668903                  mov [EBX],AX
   425 000004EF 66A1[00000000]          mov AX,[RB]
   426 000004F5 66894302                mov [EBX+2],AX
   427                                 
   428 000004F9 E9EFFEFFFF              jmp L02
   429                                 
   430                                 
   431                                 L03:
   432                                 
   433 000004FE 66A1[00000000]          mov AX,[RI]
   434 00000504 660305[00000000]        add AX,[R0]
   435 0000050B 66A3[00000000]          mov [R9],AX
   436                                 
   437 00000511 8B1D[00000000]          mov EBX,[LBR]
   438 00000517 8A83[00000000]          mov AL,[LINE+EBX]
   439 0000051D 6698                    cbw
   440 0000051F 66A3[02000000]          mov [RI+2],AX
   441 00000525 43                      inc EBX
   442 00000526 891D[00000000]          mov [LBR],EBX
   443                                 
   444 0000052C 66A1[00000000]          mov AX,[R9]
   445 00000532 662B05[00000000]        sub AX,[R7]
   446 00000539 66A3[00000000]          mov [RI],AX
   447                                 
   448 0000053F 66A1[00000000]          mov AX,[R9]
   449 00000545 98                      cwde
   450 00000546 05[00000000]            add EAX,list
   451 0000054B 89C3                    mov EBX,EAX
   452 0000054D 66A1[02000000]          mov AX,[RI+2]
   453 00000553 66C1E002                sal AX,2
   454 00000557 660B05[04000000]        or AX,[RI+4]
   455 0000055E 668903                  mov [EBX],AX
   456 00000561 66A1[00000000]          mov AX,[RI]
   457 00000567 66894302                mov [EBX+2],AX
   458                                 
   459 0000056B 66A1[00000000]          mov AX,[R8]
   460 00000571 663B05[00000000]        cmp AX,[RI]
   461 00000578 0F8DA24C0000            jge L97
   462                                 
   463 0000057E 66A1[02000000]          mov AX,[RI+2]
   464 00000584 663B05[02000000]        cmp AX,[RL+2]
   465 0000058B 0F8567FFFFFF            jnz L03
   466                                 
   467                                 
   468                                 L04:
   469                                 
   470 00000591 66A1[00000000]          mov AX,[R9]
   471 00000597 662B05[00000000]        sub AX,[R7]
   472 0000059E 66A3[00000000]          mov [RU],AX
   473                                 
   474 000005A4 66A1[00000000]          mov AX,[RU]
   475 000005AA 98                      cwde
   476 000005AB 05[00000000]            add EAX,list
   477 000005B0 89C3                    mov EBX,EAX
   478 000005B2 66A1[02000000]          mov AX,[R3+2]
   479 000005B8 66C1E002                sal AX,2
   480 000005BC 660B05[04000000]        or AX,[R3+4]
   481 000005C3 668903                  mov [EBX],AX
   482 000005C6 66A1[00000000]          mov AX,[R3]
   483 000005CC 66894302                mov [EBX+2],AX
   484                                 
   485 000005D0 66A1[00000000]          mov AX,[RU]
   486 000005D6 662B05[00000000]        sub AX,[R7]
   487 000005DD 66A3[00000000]          mov [RU],AX
   488                                 
   489 000005E3 66A1[00000000]          mov AX,[RU]
   490 000005E9 98                      cwde
   491 000005EA 05[00000000]            add EAX,list
   492 000005EF 89C3                    mov EBX,EAX
   493 000005F1 66A1[02000000]          mov AX,[R3+2]
   494 000005F7 66C1E002                sal AX,2
   495 000005FB 660B05[04000000]        or AX,[R3+4]
   496 00000602 668903                  mov [EBX],AX
   497 00000605 66A1[00000000]          mov AX,[R3]
   498 0000060B 66894302                mov [EBX+2],AX
   499                                 
   500 0000060F 66A1[00000000]          mov AX,[RU]
   501 00000615 662B05[00000000]        sub AX,[R7]
   502 0000061C 66A3[00000000]          mov [RU],AX
   503                                 
   504 00000622 66A1[00000000]          mov AX,[RU]
   505 00000628 98                      cwde
   506 00000629 05[00000000]            add EAX,list
   507 0000062E 89C3                    mov EBX,EAX
   508 00000630 66A1[02000000]          mov AX,[R3+2]
   509 00000636 66C1E002                sal AX,2
   510 0000063A 660B05[04000000]        or AX,[R3+4]
   511 00000641 668903                  mov [EBX],AX
   512 00000644 66A1[00000000]          mov AX,[R3]
   513 0000064A 66894302                mov [EBX+2],AX
   514                                 
   515 0000064E 66A1[00000000]          mov AX,[RU]
   516 00000654 662B05[00000000]        sub AX,[R7]
   517 0000065B 66A3[00000000]          mov [RU],AX
   518                                 
   519 00000661 66A1[00000000]          mov AX,[RU]
   520 00000667 98                      cwde
   521 00000668 05[00000000]            add EAX,list
   522 0000066D 89C3                    mov EBX,EAX
   523 0000066F 66A1[02000000]          mov AX,[R3+2]
   524 00000675 66C1E002                sal AX,2
   525 00000679 660B05[04000000]        or AX,[R3+4]
   526 00000680 668903                  mov [EBX],AX
   527 00000683 66A1[00000000]          mov AX,[R3]
   528 00000689 66894302                mov [EBX+2],AX
   529                                 
   530 0000068D 66A1[00000000]          mov AX,[RU]
   531 00000693 662B05[00000000]        sub AX,[R7]
   532 0000069A 66A3[00000000]          mov [RU],AX
   533                                 
   534 000006A0 66A1[00000000]          mov AX,[RU]
   535 000006A6 98                      cwde
   536 000006A7 05[00000000]            add EAX,list
   537 000006AC 89C3                    mov EBX,EAX
   538 000006AE 66A1[02000000]          mov AX,[R3+2]
   539 000006B4 66C1E002                sal AX,2
   540 000006B8 660B05[04000000]        or AX,[R3+4]
   541 000006BF 668903                  mov [EBX],AX
   542 000006C2 66A1[00000000]          mov AX,[R3]
   543 000006C8 66894302                mov [EBX+2],AX
   544                                 
   545 000006CC 66A1[00000000]          mov AX,[RU]
   546 000006D2 662B05[00000000]        sub AX,[R7]
   547 000006D9 66A3[00000000]          mov [RU],AX
   548                                 
   549 000006DF 66A1[00000000]          mov AX,[RU]
   550 000006E5 98                      cwde
   551 000006E6 05[00000000]            add EAX,list
   552 000006EB 89C3                    mov EBX,EAX
   553 000006ED 66A1[02000000]          mov AX,[R3+2]
   554 000006F3 66C1E002                sal AX,2
   555 000006F7 660B05[04000000]        or AX,[R3+4]
   556 000006FE 668903                  mov [EBX],AX
   557 00000701 66A1[00000000]          mov AX,[R3]
   558 00000707 66894302                mov [EBX+2],AX
   559                                 
   560 0000070B 66A1[00000000]          mov AX,[RU]
   561 00000711 662B05[00000000]        sub AX,[R7]
   562 00000718 66A3[00000000]          mov [RU],AX
   563                                 
   564 0000071E 66A1[00000000]          mov AX,[RU]
   565 00000724 98                      cwde
   566 00000725 05[00000000]            add EAX,list
   567 0000072A 89C3                    mov EBX,EAX
   568 0000072C 66A1[02000000]          mov AX,[R3+2]
   569 00000732 66C1E002                sal AX,2
   570 00000736 660B05[04000000]        or AX,[R3+4]
   571 0000073D 668903                  mov [EBX],AX
   572 00000740 66A1[00000000]          mov AX,[R3]
   573 00000746 66894302                mov [EBX+2],AX
   574                                 
   575 0000074A 66A1[00000000]          mov AX,[RU]
   576 00000750 662B05[00000000]        sub AX,[R7]
   577 00000757 66A3[00000000]          mov [RU],AX
   578                                 
   579 0000075D 66A1[00000000]          mov AX,[RU]
   580 00000763 98                      cwde
   581 00000764 05[00000000]            add EAX,list
   582 00000769 89C3                    mov EBX,EAX
   583 0000076B 66A1[02000000]          mov AX,[R3+2]
   584 00000771 66C1E002                sal AX,2
   585 00000775 660B05[04000000]        or AX,[R3+4]
   586 0000077C 668903                  mov [EBX],AX
   587 0000077F 66A1[00000000]          mov AX,[R3]
   588 00000785 66894302                mov [EBX+2],AX
   589                                 
   590 00000789 66A1[00000000]          mov AX,[RU]
   591 0000078F 662B05[00000000]        sub AX,[R7]
   592 00000796 66A3[00000000]          mov [RV],AX
   593                                 
   594 0000079C 66A1[00000000]          mov AX,[RV]
   595 000007A2 98                      cwde
   596 000007A3 05[00000000]            add EAX,list
   597 000007A8 89C3                    mov EBX,EAX
   598 000007AA 66A1[02000000]          mov AX,[R3+2]
   599 000007B0 66C1E002                sal AX,2
   600 000007B4 660B05[04000000]        or AX,[R3+4]
   601 000007BB 668903                  mov [EBX],AX
   602 000007BE 66A1[00000000]          mov AX,[R3]
   603 000007C4 66894302                mov [EBX+2],AX
   604                                 
   605 000007C8 66A1[00000000]          mov AX,[RV]
   606 000007CE 662B05[00000000]        sub AX,[R7]
   607 000007D5 66A3[00000000]          mov [RU],AX
   608                                 
   609 000007DB 66A1[00000000]          mov AX,[RU]
   610 000007E1 660305[00000000]        add AX,[R0]
   611 000007E8 66A3[00000000]          mov [R9],AX
   612                                 
   613 000007EE 66A1[00000000]          mov AX,[R8]
   614 000007F4 663B05[00000000]        cmp AX,[R9]
   615 000007FB 0F8D1F4A0000            jge L97
   616                                 
   617 00000801 66A1[00000000]          mov AX,[RA]
   618 00000807 98                      cwde
   619 00000808 05[00000000]            add EAX,list
   620 0000080D 89C3                    mov EBX,EAX
   621 0000080F 668B4302                mov AX,[EBX+2]
   622 00000813 66A3[00000000]          mov [RW],AX
   623 00000819 668B03                  mov AX,[EBX]
   624 0000081C 6689C2                  mov DX,AX
   625 0000081F 6683E203                and DX,3
   626 00000823 668915[04000000]        mov [RW+4],DX
   627 0000082A 66C1F802                sar AX,2
   628 0000082E 66A3[02000000]          mov [RW+2],AX
   629                                 
   630 00000834 66A1[00000000]          mov AX,[RY]
   631 0000083A 98                      cwde
   632 0000083B 05[00000000]            add EAX,list
   633 00000840 89C3                    mov EBX,EAX
   634 00000842 668B4302                mov AX,[EBX+2]
   635 00000846 66A3[00000000]          mov [RX],AX
   636 0000084C 668B03                  mov AX,[EBX]
   637 0000084F 6689C2                  mov DX,AX
   638 00000852 6683E203                and DX,3
   639 00000856 668915[04000000]        mov [RX+4],DX
   640 0000085D 66C1F802                sar AX,2
   641 00000861 66A3[02000000]          mov [RX+2],AX
   642                                 
   643 00000867 66A1[04000000]          mov AX,[R0+4]
   644 0000086D 66A3[04000000]          mov [RY+4],AX
   645                                 
   646 00000873 66A1[00000000]          mov AX,[RA]
   647 00000879 660305[00000000]        add AX,[R0]
   648 00000880 66A3[00000000]          mov [RZ],AX
   649                                 
   650 00000886 B8[00000000]            mov EAX,G101
   651 0000088B 2D[00000000]            sub EAX,progr
   652 00000890 66A3[00000000]          mov [RB],AX
   653 00000896 E925350000              jmp L58
   654                                 G101:
   655                                 
   656 0000089B 66A1[04000000]          mov AX,[RB+4]
   657 000008A1 663B05[04000000]        cmp AX,[R2+4]
   658 000008A8 0F84F42F0000            jz L50
   659                                 
   660 000008AE 66A1[04000000]          mov AX,[RY+4]
   661 000008B4 663B05[04000000]        cmp AX,[R0+4]
   662 000008BB 0F842C340000            jz L56
   663                                 
   664 000008C1 66A1[00000000]          mov AX,[R9]
   665 000008C7 98                      cwde
   666 000008C8 05[00000000]            add EAX,list
   667 000008CD 89C3                    mov EBX,EAX
   668 000008CF 66A1[02000000]          mov AX,[R1+2]
   669 000008D5 66C1E002                sal AX,2
   670 000008D9 660B05[04000000]        or AX,[R1+4]
   671 000008E0 668903                  mov [EBX],AX
   672 000008E3 66A1[00000000]          mov AX,[R1]
   673 000008E9 66894302                mov [EBX+2],AX
   674                                 
   675 000008ED 66A1[00000000]          mov AX,[R9]
   676 000008F3 662B05[00000000]        sub AX,[RH]
   677 000008FA 66A3[00000000]          mov [R9],AX
   678                                 
   679 00000900 66A1[00000000]          mov AX,[R9]
   680 00000906 98                      cwde
   681 00000907 05[00000000]            add EAX,list
   682 0000090C 89C3                    mov EBX,EAX
   683 0000090E 66A1[02000000]          mov AX,[RJ+2]
   684 00000914 66C1E002                sal AX,2
   685 00000918 660B05[04000000]        or AX,[RJ+4]
   686 0000091F 668903                  mov [EBX],AX
   687 00000922 66A1[00000000]          mov AX,[RJ]
   688 00000928 66894302                mov [EBX+2],AX
   689                                 
   690 0000092C 66A1[00000000]          mov AX,[R9]
   691 00000932 660305[00000000]        add AX,[RH]
   692 00000939 66A3[00000000]          mov [RJ],AX
   693                                 
   694 0000093F 66A1[00000000]          mov AX,[R9]
   695 00000945 662B05[00000000]        sub AX,[R7]
   696 0000094C 66A3[00000000]          mov [R9],AX
   697                                 
   698 00000952 66A1[00000000]          mov AX,[R9]
   699 00000958 98                      cwde
   700 00000959 05[00000000]            add EAX,list
   701 0000095E 89C3                    mov EBX,EAX
   702 00000960 66A1[02000000]          mov AX,[RC+2]
   703 00000966 66C1E002                sal AX,2
   704 0000096A 660B05[04000000]        or AX,[RC+4]
   705 00000971 668903                  mov [EBX],AX
   706 00000974 66A1[00000000]          mov AX,[RC]
   707 0000097A 66894302                mov [EBX+2],AX
   708                                 
   709 0000097E 66A1[00000000]          mov AX,[R9]
   710 00000984 662B05[00000000]        sub AX,[R7]
   711 0000098B 66A3[00000000]          mov [R9],AX
   712                                 
   713 00000991 66A1[00000000]          mov AX,[R9]
   714 00000997 98                      cwde
   715 00000998 05[00000000]            add EAX,list
   716 0000099D 89C3                    mov EBX,EAX
   717 0000099F 66A1[02000000]          mov AX,[RD+2]
   718 000009A5 66C1E002                sal AX,2
   719 000009A9 660B05[04000000]        or AX,[RD+4]
   720 000009B0 668903                  mov [EBX],AX
   721 000009B3 66A1[00000000]          mov AX,[RD]
   722 000009B9 66894302                mov [EBX+2],AX
   723                                 
   724 000009BD 66A1[00000000]          mov AX,[R9]
   725 000009C3 662B05[00000000]        sub AX,[R7]
   726 000009CA 66A3[00000000]          mov [R9],AX
   727                                 
   728 000009D0 66A1[00000000]          mov AX,[R9]
   729 000009D6 98                      cwde
   730 000009D7 05[00000000]            add EAX,list
   731 000009DC 89C3                    mov EBX,EAX
   732 000009DE 66A1[02000000]          mov AX,[RK+2]
   733 000009E4 66C1E002                sal AX,2
   734 000009E8 660B05[04000000]        or AX,[RK+4]
   735 000009EF 668903                  mov [EBX],AX
   736 000009F2 66A1[00000000]          mov AX,[RK]
   737 000009F8 66894302                mov [EBX+2],AX
   738                                 
   739 000009FC 66A1[00000000]          mov AX,[RU]
   740 00000A02 660305[00000000]        add AX,[R0]
   741 00000A09 66A3[00000000]          mov [RK],AX
   742                                 
   743 00000A0F 66A1[00000000]          mov AX,[R9]
   744 00000A15 662B05[00000000]        sub AX,[R7]
   745 00000A1C 66A3[00000000]          mov [R9],AX
   746                                 
   747 00000A22 66A1[00000000]          mov AX,[R9]
   748 00000A28 98                      cwde
   749 00000A29 05[00000000]            add EAX,list
   750 00000A2E 89C3                    mov EBX,EAX
   751 00000A30 66A1[02000000]          mov AX,[RR+2]
   752 00000A36 66C1E002                sal AX,2
   753 00000A3A 660B05[04000000]        or AX,[RR+4]
   754 00000A41 668903                  mov [EBX],AX
   755 00000A44 66A1[00000000]          mov AX,[RR]
   756 00000A4A 66894302                mov [EBX+2],AX
   757                                 
   758 00000A4E 66A1[00000000]          mov AX,[R0]
   759 00000A54 660305[00000000]        add AX,[R0]
   760 00000A5B 66A3[00000000]          mov [RR],AX
   761                                 
   762 00000A61 66A1[00000000]          mov AX,[R9]
   763 00000A67 662B05[00000000]        sub AX,[R7]
   764 00000A6E 66A3[00000000]          mov [RC],AX
   765                                 
   766 00000A74 66A1[00000000]          mov AX,[R8]
   767 00000A7A 663B05[00000000]        cmp AX,[RC]
   768 00000A81 0F8D99470000            jge L97
   769                                 
   770 00000A87 B8[00000000]            mov EAX,G102
   771 00000A8C 2D[00000000]            sub EAX,progr
   772 00000A91 66A3[00000000]          mov [RD],AX
   773 00000A97 EBFE                    jmp L05
   774                                 G102:
   775                                 
   776                                 
   777                                 L05:
   778                                 
   779 00000A99 66A1[00000000]          mov AX,[RC]
   780 00000A9F 660305[00000000]        add AX,[R0]
   781 00000AA6 66A3[00000000]          mov [R9],AX
   782                                 
   783 00000AAC 66A1[00000000]          mov AX,[R0]
   784 00000AB2 660305[00000000]        add AX,[R0]
   785 00000AB9 66A3[00000000]          mov [RY],AX
   786                                 
   787                                 
   788                                 L06:
   789                                 
   790 00000ABF 66A1[00000000]          mov AX,[RM]
   791 00000AC5 663B05[00000000]        cmp AX,[R0]
   792 00000ACC 0F8408020000            jz L07
   793                                 
   794 00000AD2 66A1[00000000]          mov AX,[RK]
   795 00000AD8 660305[00000000]        add AX,[R7]
   796 00000ADF 66A3[00000000]          mov [RZ],AX
   797                                 
   798 00000AE5 66A1[00000000]          mov AX,[RK]
   799 00000AEB 98                      cwde
   800 00000AEC 05[00000000]            add EAX,list
   801 00000AF1 89C3                    mov EBX,EAX
   802 00000AF3 668B4302                mov AX,[EBX+2]
   803 00000AF7 66A3[00000000]          mov [RK],AX
   804 00000AFD 668B03                  mov AX,[EBX]
   805 00000B00 6689C2                  mov DX,AX
   806 00000B03 6683E203                and DX,3
   807 00000B07 668915[04000000]        mov [RK+4],DX
   808 00000B0E 66C1F802                sar AX,2
   809 00000B12 66A3[02000000]          mov [RK+2],AX
   810                                 
   811 00000B18 66A1[00000000]          mov AX,[RK]
   812 00000B1E 98                      cwde
   813 00000B1F 05[00000000]            add EAX,list
   814 00000B24 89C3                    mov EBX,EAX
   815 00000B26 668B4302                mov AX,[EBX+2]
   816 00000B2A 66A3[00000000]          mov [RI],AX
   817 00000B30 668B03                  mov AX,[EBX]
   818 00000B33 6689C2                  mov DX,AX
   819 00000B36 6683E203                and DX,3
   820 00000B3A 668915[04000000]        mov [RI+4],DX
   821 00000B41 66C1F802                sar AX,2
   822 00000B45 66A3[02000000]          mov [RI+2],AX
   823                                 
   824 00000B4B 66A1[02000000]          mov AX,[RI+2]
   825 00000B51 663B05[02000000]        cmp AX,[R1+2]
   826 00000B58 0F84CD020000            jz L08
   827                                 
   828 00000B5E 66A1[00000000]          mov AX,[RM]
   829 00000B64 662B05[00000000]        sub AX,[R1]
   830 00000B6B 66A3[00000000]          mov [RM],AX
   831                                 
   832 00000B71 66A1[00000000]          mov AX,[RZ]
   833 00000B77 98                      cwde
   834 00000B78 05[00000000]            add EAX,list
   835 00000B7D 89C3                    mov EBX,EAX
   836 00000B7F 668B4302                mov AX,[EBX+2]
   837 00000B83 66A3[00000000]          mov [RZ],AX
   838 00000B89 668B03                  mov AX,[EBX]
   839 00000B8C 6689C2                  mov DX,AX
   840 00000B8F 6683E203                and DX,3
   841 00000B93 668915[04000000]        mov [RZ+4],DX
   842 00000B9A 66C1F802                sar AX,2
   843 00000B9E 66A3[02000000]          mov [RZ+2],AX
   844                                 
   845 00000BA4 66A1[04000000]          mov AX,[RZ+4]
   846 00000BAA 663B05[04000000]        cmp AX,[R3+4]
   847 00000BB1 0F8502FFFFFF            jnz L06
   848                                 
   849 00000BB7 66A1[00000000]          mov AX,[RY]
   850 00000BBD 660305[00000000]        add AX,[R1]
   851 00000BC4 66A3[00000000]          mov [RY],AX
   852                                 
   853 00000BCA 66A1[02000000]          mov AX,[RZ+2]
   854 00000BD0 663B05[02000000]        cmp AX,[R7+2]
   855 00000BD7 0F84DCFEFFFF            jz L06
   856                                 
   857 00000BDD 66A1[00000000]          mov AX,[RY]
   858 00000BE3 662B05[00000000]        sub AX,[R1]
   859 00000BEA 66A3[00000000]          mov [RY],AX
   860                                 
   861 00000BF0 66A1[02000000]          mov AX,[RZ+2]
   862 00000BF6 663B05[02000000]        cmp AX,[R8+2]
   863 00000BFD 0F85B6FEFFFF            jnz L06
   864                                 
   865 00000C03 66A1[00000000]          mov AX,[RY]
   866 00000C09 662B05[00000000]        sub AX,[R1]
   867 00000C10 66A3[00000000]          mov [RY],AX
   868                                 
   869 00000C16 66A1[00000000]          mov AX,[RY]
   870 00000C1C 663B05[00000000]        cmp AX,[R0]
   871 00000C23 0F8D90FEFFFF            jge L06
   872                                 
   873 00000C29 66A1[00000000]          mov AX,[RR]
   874 00000C2F 663B05[00000000]        cmp AX,[R0]
   875 00000C36 0F847DFEFFFF            jz L06
   876                                 
   877 00000C3C 66A1[00000000]          mov AX,[RR]
   878 00000C42 662B05[00000000]        sub AX,[R7]
   879 00000C49 66A3[00000000]          mov [RU],AX
   880                                 
   881 00000C4F 66A1[00000000]          mov AX,[RU]
   882 00000C55 98                      cwde
   883 00000C56 05[00000000]            add EAX,list
   884 00000C5B 89C3                    mov EBX,EAX
   885 00000C5D 668B4302                mov AX,[EBX+2]
   886 00000C61 66A3[00000000]          mov [RY],AX
   887 00000C67 668B03                  mov AX,[EBX]
   888 00000C6A 6689C2                  mov DX,AX
   889 00000C6D 6683E203                and DX,3
   890 00000C71 668915[04000000]        mov [RY+4],DX
   891 00000C78 66C1F802                sar AX,2
   892 00000C7C 66A3[02000000]          mov [RY+2],AX
   893                                 
   894 00000C82 66A1[04000000]          mov AX,[RY+4]
   895 00000C88 663B05[04000000]        cmp AX,[R1+4]
   896 00000C8F 0F85B12A0000            jnz L49
   897                                 
   898 00000C95 66A1[00000000]          mov AX,[RR]
   899 00000C9B 660305[00000000]        add AX,[R0]
   900 00000CA2 66A3[00000000]          mov [RC],AX
   901                                 
   902 00000CA8 66A1[00000000]          mov AX,[RR]
   903 00000CAE 98                      cwde
   904 00000CAF 05[00000000]            add EAX,list
   905 00000CB4 89C3                    mov EBX,EAX
   906 00000CB6 668B4302                mov AX,[EBX+2]
   907 00000CBA 66A3[00000000]          mov [RR],AX
   908 00000CC0 668B03                  mov AX,[EBX]
   909 00000CC3 6689C2                  mov DX,AX
   910 00000CC6 6683E203                and DX,3
   911 00000CCA 668915[04000000]        mov [RR+4],DX
   912 00000CD1 66C1F802                sar AX,2
   913 00000CD5 66A3[02000000]          mov [RR+2],AX
   914                                 
   915 00000CDB E9B4FDFFFF              jmp L05
   916                                 
   917                                 
   918                                 L07:
   919                                 
   920 00000CE0 66A1[00000000]          mov AX,[RK]
   921 00000CE6 660305[00000000]        add AX,[R7]
   922 00000CED 66A3[00000000]          mov [RK],AX
   923                                 
   924 00000CF3 66A1[00000000]          mov AX,[RK]
   925 00000CF9 98                      cwde
   926 00000CFA 05[00000000]            add EAX,list
   927 00000CFF 89C3                    mov EBX,EAX
   928 00000D01 668B4302                mov AX,[EBX+2]
   929 00000D05 66A3[00000000]          mov [RI],AX
   930 00000D0B 668B03                  mov AX,[EBX]
   931 00000D0E 6689C2                  mov DX,AX
   932 00000D11 6683E203                and DX,3
   933 00000D15 668915[04000000]        mov [RI+4],DX
   934 00000D1C 66C1F802                sar AX,2
   935 00000D20 66A3[02000000]          mov [RI+2],AX
   936                                 
   937 00000D26 66A1[04000000]          mov AX,[RI+4]
   938 00000D2C 663B05[04000000]        cmp AX,[R2+4]
   939 00000D33 0F8460020000            jz L09
   940                                 
   941 00000D39 66A1[04000000]          mov AX,[RI+4]
   942 00000D3F 663B05[04000000]        cmp AX,[R3+4]
   943 00000D46 0F841D0F0000            jz L22
   944                                 
   945 00000D4C 66A1[00000000]          mov AX,[R9]
   946 00000D52 662B05[00000000]        sub AX,[R7]
   947 00000D59 66A3[00000000]          mov [RI],AX
   948                                 
   949 00000D5F 66A1[00000000]          mov AX,[R9]
   950 00000D65 98                      cwde
   951 00000D66 05[00000000]            add EAX,list
   952 00000D6B 89C3                    mov EBX,EAX
   953 00000D6D 66A1[02000000]          mov AX,[RI+2]
   954 00000D73 66C1E002                sal AX,2
   955 00000D77 660B05[04000000]        or AX,[RI+4]
   956 00000D7E 668903                  mov [EBX],AX
   957 00000D81 66A1[00000000]          mov AX,[RI]
   958 00000D87 66894302                mov [EBX+2],AX
   959                                 
   960 00000D8B 66A1[00000000]          mov AX,[RI]
   961 00000D91 660305[00000000]        add AX,[R0]
   962 00000D98 66A3[00000000]          mov [R9],AX
   963                                 
   964 00000D9E 66A1[00000000]          mov AX,[R8]
   965 00000DA4 663B05[00000000]        cmp AX,[R9]
   966 00000DAB 0F8D6F440000            jge L97
   967                                 
   968 00000DB1 66A1[04000000]          mov AX,[RI+4]
   969 00000DB7 663B05[04000000]        cmp AX,[R0+4]
   970 00000DBE 0F8416FFFFFF            jz L07
   971                                 
   972 00000DC4 66A1[00000000]          mov AX,[RC]
   973 00000DCA 662B05[00000000]        sub AX,[R9]
   974 00000DD1 66A3[00000000]          mov [RY],AX
   975                                 
   976 00000DD7 66A1[00000000]          mov AX,[RY]
   977 00000DDD 6699                    cwd
   978 00000DDF 66F73D[00000000]        idiv word [R7]
   979 00000DE6 66A3[00000000]          mov [RY],AX
   980                                 
   981 00000DEC 66A1[00000000]          mov AX,[RY]
   982 00000DF2 662B05[00000000]        sub AX,[R1]
   983 00000DF9 66A3[00000000]          mov [RY],AX
   984                                 
   985 00000DFF 66A1[00000000]          mov AX,[RY]
   986 00000E05 66A3[02000000]          mov [RY+2],AX
   987                                 
   988 00000E0B 66A1[00000000]          mov AX,[RC]
   989 00000E11 660305[00000000]        add AX,[R0]
   990 00000E18 66A3[00000000]          mov [RY],AX
   991                                 
   992 00000E1E 66A1[02000000]          mov AX,[RI+2]
   993 00000E24 663B05[02000000]        cmp AX,[R1+2]
   994 00000E2B 0F855AF7FFFF            jnz L04
   995                                 
   996                                 
   997                                 L08:
   998                                 
   999 00000E31 66A1[00000000]          mov AX,[RJ]
  1000 00000E37 662B05[00000000]        sub AX,[RH]
  1001 00000E3E 66A3[00000000]          mov [R9],AX
  1002                                 
  1003 00000E44 66A1[00000000]          mov AX,[R9]
  1004 00000E4A 98                      cwde
  1005 00000E4B 05[00000000]            add EAX,list
  1006 00000E50 89C3                    mov EBX,EAX
  1007 00000E52 668B4302                mov AX,[EBX+2]
  1008 00000E56 66A3[00000000]          mov [RJ],AX
  1009 00000E5C 668B03                  mov AX,[EBX]
  1010 00000E5F 6689C2                  mov DX,AX
  1011 00000E62 6683E203                and DX,3
  1012 00000E66 668915[04000000]        mov [RJ+4],DX
  1013 00000E6D 66C1F802                sar AX,2
  1014 00000E71 66A3[02000000]          mov [RJ+2],AX
  1015                                 
  1016 00000E77 66A1[00000000]          mov AX,[R9]
  1017 00000E7D 662B05[00000000]        sub AX,[R7]
  1018 00000E84 66A3[00000000]          mov [R9],AX
  1019                                 
  1020 00000E8A 66A1[00000000]          mov AX,[R9]
  1021 00000E90 98                      cwde
  1022 00000E91 05[00000000]            add EAX,list
  1023 00000E96 89C3                    mov EBX,EAX
  1024 00000E98 668B4302                mov AX,[EBX+2]
  1025 00000E9C 66A3[00000000]          mov [RC],AX
  1026 00000EA2 668B03                  mov AX,[EBX]
  1027 00000EA5 6689C2                  mov DX,AX
  1028 00000EA8 6683E203                and DX,3
  1029 00000EAC 668915[04000000]        mov [RC+4],DX
  1030 00000EB3 66C1F802                sar AX,2
  1031 00000EB7 66A3[02000000]          mov [RC+2],AX
  1032                                 
  1033 00000EBD 66A1[00000000]          mov AX,[R9]
  1034 00000EC3 662B05[00000000]        sub AX,[R7]
  1035 00000ECA 66A3[00000000]          mov [R9],AX
  1036                                 
  1037 00000ED0 66A1[00000000]          mov AX,[R9]
  1038 00000ED6 98                      cwde
  1039 00000ED7 05[00000000]            add EAX,list
  1040 00000EDC 89C3                    mov EBX,EAX
  1041 00000EDE 668B4302                mov AX,[EBX+2]
  1042 00000EE2 66A3[00000000]          mov [RD],AX
  1043 00000EE8 668B03                  mov AX,[EBX]
  1044 00000EEB 6689C2                  mov DX,AX
  1045 00000EEE 6683E203                and DX,3
  1046 00000EF2 668915[04000000]        mov [RD+4],DX
  1047 00000EF9 66C1F802                sar AX,2
  1048 00000EFD 66A3[02000000]          mov [RD+2],AX
  1049                                 
  1050 00000F03 66A1[00000000]          mov AX,[R9]
  1051 00000F09 662B05[00000000]        sub AX,[R7]
  1052 00000F10 66A3[00000000]          mov [R9],AX
  1053                                 
  1054 00000F16 66A1[00000000]          mov AX,[R9]
  1055 00000F1C 98                      cwde
  1056 00000F1D 05[00000000]            add EAX,list
  1057 00000F22 89C3                    mov EBX,EAX
  1058 00000F24 668B4302                mov AX,[EBX+2]
  1059 00000F28 66A3[00000000]          mov [RK],AX
  1060 00000F2E 668B03                  mov AX,[EBX]
  1061 00000F31 6689C2                  mov DX,AX
  1062 00000F34 6683E203                and DX,3
  1063 00000F38 668915[04000000]        mov [RK+4],DX
  1064 00000F3F 66C1F802                sar AX,2
  1065 00000F43 66A3[02000000]          mov [RK+2],AX
  1066                                 
  1067 00000F49 66A1[00000000]          mov AX,[R9]
  1068 00000F4F 662B05[00000000]        sub AX,[R7]
  1069 00000F56 66A3[00000000]          mov [R9],AX
  1070                                 
  1071 00000F5C 66A1[00000000]          mov AX,[R9]
  1072 00000F62 98                      cwde
  1073 00000F63 05[00000000]            add EAX,list
  1074 00000F68 89C3                    mov EBX,EAX
  1075 00000F6A 668B4302                mov AX,[EBX+2]
  1076 00000F6E 66A3[00000000]          mov [RR],AX
  1077 00000F74 668B03                  mov AX,[EBX]
  1078 00000F77 6689C2                  mov DX,AX
  1079 00000F7A 6683E203                and DX,3
  1080 00000F7E 668915[04000000]        mov [RR+4],DX
  1081 00000F85 66C1F802                sar AX,2
  1082 00000F89 66A3[02000000]          mov [RR+2],AX
  1083                                 
  1084 00000F8F 66A1[00000000]          mov AX,[RD]
  1085 00000F95 98                      cwde
  1086 00000F96 05[00000000]            add EAX,progr
  1087 00000F9B 89C3                    mov EBX,EAX
  1088 00000F9D FFE3                    jmp EBX
  1089                                 
  1090                                 
  1091                                 L09:
  1092                                 
  1093 00000F9F 66A1[00000000]          mov AX,[RJ]
  1094 00000FA5 660305[00000000]        add AX,[RI]
  1095 00000FAC 66A3[00000000]          mov [RV],AX
  1096                                 
  1097 00000FB2 66A1[02000000]          mov AX,[RI+2]
  1098 00000FB8 663B05[02000000]        cmp AX,[R6+2]
  1099 00000FBF 0F84CE0B0000            jz L21
  1100                                 
  1101 00000FC5 66A1[00000000]          mov AX,[RV]
  1102 00000FCB 98                      cwde
  1103 00000FCC 05[00000000]            add EAX,list
  1104 00000FD1 89C3                    mov EBX,EAX
  1105 00000FD3 668B4302                mov AX,[EBX+2]
  1106 00000FD7 66A3[00000000]          mov [RY],AX
  1107 00000FDD 668B03                  mov AX,[EBX]
  1108 00000FE0 6689C2                  mov DX,AX
  1109 00000FE3 6683E203                and DX,3
  1110 00000FE7 668915[04000000]        mov [RY+4],DX
  1111 00000FEE 66C1F802                sar AX,2
  1112 00000FF2 66A3[02000000]          mov [RY+2],AX
  1113                                 
  1114 00000FF8 66A1[02000000]          mov AX,[RI+2]
  1115 00000FFE 663B05[02000000]        cmp AX,[R7+2]
  1116 00001005 0F84BF1E0000            jz L45
  1117                                 
  1118 0000100B 66A1[04000000]          mov AX,[RY+4]
  1119 00001011 663B05[04000000]        cmp AX,[R3+4]
  1120 00001018 0F845F0D0000            jz L23
  1121                                 
  1122 0000101E 66A1[00000000]          mov AX,[RY]
  1123 00001024 98                      cwde
  1124 00001025 05[00000000]            add EAX,list
  1125 0000102A 89C3                    mov EBX,EAX
  1126 0000102C 668B4302                mov AX,[EBX+2]
  1127 00001030 66A3[00000000]          mov [RX],AX
  1128 00001036 668B03                  mov AX,[EBX]
  1129 00001039 6689C2                  mov DX,AX
  1130 0000103C 6683E203                and DX,3
  1131 00001040 668915[04000000]        mov [RX+4],DX
  1132 00001047 66C1F802                sar AX,2
  1133 0000104B 66A3[02000000]          mov [RX+2],AX
  1134                                 
  1135 00001051 66A1[02000000]          mov AX,[RI+2]
  1136 00001057 663B05[02000000]        cmp AX,[R0+2]
  1137 0000105E 0F84AE010000            jz L11
  1138                                 
  1139 00001064 66A1[02000000]          mov AX,[RI+2]
  1140 0000106A 663B05[02000000]        cmp AX,[R1+2]
  1141 00001071 0F84DB000000            jz L10
  1142                                 
  1143 00001077 66A1[02000000]          mov AX,[RI+2]
  1144 0000107D 663B05[02000000]        cmp AX,[R2+2]
  1145 00001084 0F84F6020000            jz L12
  1146                                 
  1147 0000108A 66A1[02000000]          mov AX,[RI+2]
  1148 00001090 663B05[02000000]        cmp AX,[R4+2]
  1149 00001097 0F8459060000            jz L15
  1150                                 
  1151 0000109D 66A1[00000000]          mov AX,[RY]
  1152 000010A3 660305[00000000]        add AX,[R0]
  1153 000010AA 66A3[00000000]          mov [RX],AX
  1154                                 
  1155 000010B0 66A1[02000000]          mov AX,[RI+2]
  1156 000010B6 663B05[02000000]        cmp AX,[R3+2]
  1157 000010BD 0F84FE090000            jz L20
  1158                                 
  1159 000010C3 66A1[02000000]          mov AX,[RY+2]
  1160 000010C9 66A3[00000000]          mov [RN],AX
  1161                                 
  1162 000010CF 66A1[02000000]          mov AX,[RI+2]
  1163 000010D5 663B05[02000000]        cmp AX,[R5+2]
  1164 000010DC 0F843E080000            jz L18
  1165                                 
  1166 000010E2 66A1[02000000]          mov AX,[RY+2]
  1167 000010E8 663B05[02000000]        cmp AX,[R1+2]
  1168 000010EF 0F85880C0000            jnz L23
  1169                                 
  1170 000010F5 66A1[02000000]          mov AX,[RX+2]
  1171 000010FB 66A3[00000000]          mov [RN],AX
  1172                                 
  1173 00001101 66A1[02000000]          mov AX,[RI+2]
  1174 00001107 663B05[02000000]        cmp AX,[R8+2]
  1175 0000110E 0F840C080000            jz L18
  1176                                 
  1177 00001114 BB[00000000]            mov EBX,MB
  1178 00001119 C6430A43                mov byte [EBX+10],067
  1179 0000111D C6430B4F                mov byte [EBX+11],079
  1180 00001121 C6430C4E                mov byte [EBX+12],078
  1181 00001125 C6430D56                mov byte [EBX+13],086
  1182 00001129 66A1[02000000]          mov AX,[R4+2]
  1183 0000112F 98                      cwde
  1184 00001130 890424                  mov [ESP],EAX
  1185 00001133 E8(F6FFFFFF)            call iprnt
  1186 00001138 66A3[04000000]          mov [R4+4],AX
  1187                                 
  1188 0000113E B8[00000000]            mov EAX,G103
  1189 00001143 2D[00000000]            sub EAX,progr
  1190 00001148 66A3[00000000]          mov [RB],AX
  1191 0000114E E91D3F0000              jmp L94
  1192                                 G103:
  1193                                 
  1194 00001153 E983FBFFFF              jmp L07
  1195                                 
  1196                                 
  1197                                 L10:
  1198                                 
  1199 00001158 66A1[00000000]          mov AX,[R9]
  1200 0000115E 660305[00000000]        add AX,[R7]
  1201 00001165 66A3[00000000]          mov [RV],AX
  1202                                 
  1203 0000116B 66A1[00000000]          mov AX,[RF]
  1204 00001171 98                      cwde
  1205 00001172 05[00000000]            add EAX,list
  1206 00001177 89C3                    mov EBX,EAX
  1207 00001179 668B4302                mov AX,[EBX+2]
  1208 0000117D 66A3[00000000]          mov [RW],AX
  1209 00001183 668B03                  mov AX,[EBX]
  1210 00001186 6689C2                  mov DX,AX
  1211 00001189 6683E203                and DX,3
  1212 0000118D 668915[04000000]        mov [RW+4],DX
  1213 00001194 66C1F802                sar AX,2
  1214 00001198 66A3[02000000]          mov [RW+2],AX
  1215                                 
  1216 0000119E 66A1[00000000]          mov AX,[RF]
  1217 000011A4 660305[00000000]        add AX,[R0]
  1218 000011AB 66A3[00000000]          mov [RZ],AX
  1219                                 
  1220 000011B1 B8[00000000]            mov EAX,G104
  1221 000011B6 2D[00000000]            sub EAX,progr
  1222 000011BB 66A3[00000000]          mov [RB],AX
  1223 000011C1 E9FA2B0000              jmp L58
  1224                                 G104:
  1225                                 
  1226 000011C6 66A1[04000000]          mov AX,[RY+4]
  1227 000011CC 663B05[04000000]        cmp AX,[R1+4]
  1228 000011D3 0F8501FBFFFF            jnz L07
  1229                                 
  1230 000011D9 66A1[04000000]          mov AX,[R0+4]
  1231 000011DF 66A3[04000000]          mov [RI+4],AX
  1232                                 
  1233 000011E5 66A1[00000000]          mov AX,[RY]
  1234 000011EB 98                      cwde
  1235 000011EC 05[00000000]            add EAX,list
  1236 000011F1 89C3                    mov EBX,EAX
  1237 000011F3 668B4302                mov AX,[EBX+2]
  1238 000011F7 66A3[00000000]          mov [RX],AX
  1239 000011FD 668B03                  mov AX,[EBX]
  1240 00001200 6689C2                  mov DX,AX
  1241 00001203 6683E203                and DX,3
  1242 00001207 668915[04000000]        mov [RX+4],DX
  1243 0000120E 66C1F802                sar AX,2
  1244 00001212 66A3[02000000]          mov [RX+2],AX
  1245                                 
  1246                                 
  1247                                 L11:
  1248                                 
  1249 00001218 66A1[02000000]          mov AX,[RY+2]
  1250 0000121E 663B05[02000000]        cmp AX,[R0+2]
  1251 00001225 0F84AFFAFFFF            jz L07
  1252                                 
  1253 0000122B 66A1[00000000]          mov AX,[RX]
  1254 00001231 98                      cwde
  1255 00001232 05[00000000]            add EAX,list
  1256 00001237 89C3                    mov EBX,EAX
  1257 00001239 668B4302                mov AX,[EBX+2]
  1258 0000123D 66A3[00000000]          mov [RI],AX
  1259 00001243 668B03                  mov AX,[EBX]
  1260 00001246 6689C2                  mov DX,AX
  1261 00001249 6683E203                and DX,3
  1262 0000124D 668915[04000000]        mov [RI+4],DX
  1263 00001254 66C1F802                sar AX,2
  1264 00001258 66A3[02000000]          mov [RI+2],AX
  1265                                 
  1266 0000125E 66A1[00000000]          mov AX,[R9]
  1267 00001264 662B05[00000000]        sub AX,[R7]
  1268 0000126B 66A3[00000000]          mov [RX],AX
  1269                                 
  1270 00001271 66A1[00000000]          mov AX,[R9]
  1271 00001277 98                      cwde
  1272 00001278 05[00000000]            add EAX,list
  1273 0000127D 89C3                    mov EBX,EAX
  1274 0000127F 66A1[02000000]          mov AX,[RX+2]
  1275 00001285 66C1E002                sal AX,2
  1276 00001289 660B05[04000000]        or AX,[RX+4]
  1277 00001290 668903                  mov [EBX],AX
  1278 00001293 66A1[00000000]          mov AX,[RX]
  1279 00001299 66894302                mov [EBX+2],AX
  1280                                 
  1281 0000129D 66A1[00000000]          mov AX,[RX]
  1282 000012A3 660305[00000000]        add AX,[R0]
  1283 000012AA 66A3[00000000]          mov [R9],AX
  1284                                 
  1285 000012B0 66A1[02000000]          mov AX,[RY+2]
  1286 000012B6 662B05[02000000]        sub AX,[R1+2]
  1287 000012BD 66A3[02000000]          mov [RY+2],AX
  1288                                 
  1289 000012C3 66A1[02000000]          mov AX,[RY+2]
  1290 000012C9 663B05[02000000]        cmp AX,[R0+2]
  1291 000012D0 0F8404FAFFFF            jz L07
  1292                                 
  1293 000012D6 66A1[00000000]          mov AX,[RI]
  1294 000012DC 98                      cwde
  1295 000012DD 05[00000000]            add EAX,list
  1296 000012E2 89C3                    mov EBX,EAX
  1297 000012E4 668B4302                mov AX,[EBX+2]
  1298 000012E8 66A3[00000000]          mov [RX],AX
  1299 000012EE 668B03                  mov AX,[EBX]
  1300 000012F1 6689C2                  mov DX,AX
  1301 000012F4 6683E203                and DX,3
  1302 000012F8 668915[04000000]        mov [RX+4],DX
  1303 000012FF 66C1F802                sar AX,2
  1304 00001303 66A3[02000000]          mov [RX+2],AX
  1305                                 
  1306 00001309 66A1[00000000]          mov AX,[R9]
  1307 0000130F 662B05[00000000]        sub AX,[R7]
  1308 00001316 66A3[00000000]          mov [RI],AX
  1309                                 
  1310 0000131C 66A1[00000000]          mov AX,[R9]
  1311 00001322 98                      cwde
  1312 00001323 05[00000000]            add EAX,list
  1313 00001328 89C3                    mov EBX,EAX
  1314 0000132A 66A1[02000000]          mov AX,[RI+2]
  1315 00001330 66C1E002                sal AX,2
  1316 00001334 660B05[04000000]        or AX,[RI+4]
  1317 0000133B 668903                  mov [EBX],AX
  1318 0000133E 66A1[00000000]          mov AX,[RI]
  1319 00001344 66894302                mov [EBX+2],AX
  1320                                 
  1321 00001348 66A1[00000000]          mov AX,[RI]
  1322 0000134E 660305[00000000]        add AX,[R0]
  1323 00001355 66A3[00000000]          mov [R9],AX
  1324                                 
  1325 0000135B 66A1[00000000]          mov AX,[R8]
  1326 00001361 663B05[00000000]        cmp AX,[R9]
  1327 00001368 0F8DB23E0000            jge L97
  1328                                 
  1329 0000136E 66A1[02000000]          mov AX,[RY+2]
  1330 00001374 662B05[02000000]        sub AX,[R1+2]
  1331 0000137B 66A3[02000000]          mov [RY+2],AX
  1332                                 
  1333 00001381 E98DFEFFFF              jmp L11
  1334                                 
  1335                                 
  1336                                 L12:
  1337                                 
  1338 00001386 66A1[04000000]          mov AX,[R2+4]
  1339 0000138C 66A3[04000000]          mov [RB+4],AX
  1340                                 
  1341 00001392 66A1[00000000]          mov AX,[RF]
  1342 00001398 98                      cwde
  1343 00001399 05[00000000]            add EAX,list
  1344 0000139E 89C3                    mov EBX,EAX
  1345 000013A0 668B4302                mov AX,[EBX+2]
  1346 000013A4 66A3[00000000]          mov [RW],AX
  1347 000013AA 668B03                  mov AX,[EBX]
  1348 000013AD 6689C2                  mov DX,AX
  1349 000013B0 6683E203                and DX,3
  1350 000013B4 668915[04000000]        mov [RW+4],DX
  1351 000013BB 66C1F802                sar AX,2
  1352 000013BF 66A3[02000000]          mov [RW+2],AX
  1353                                 
  1354 000013C5 66A1[00000000]          mov AX,[RF]
  1355 000013CB 660305[00000000]        add AX,[R0]
  1356 000013D2 66A3[00000000]          mov [RZ],AX
  1357                                 
  1358 000013D8 B8[00000000]            mov EAX,G105
  1359 000013DD 2D[00000000]            sub EAX,progr
  1360 000013E2 66A3[00000000]          mov [RB],AX
  1361 000013E8 E9D3290000              jmp L58
  1362                                 G105:
  1363                                 
  1364 000013ED 66A1[04000000]          mov AX,[R0+4]
  1365 000013F3 66A3[04000000]          mov [RB+4],AX
  1366                                 
  1367 000013F9 66A1[00000000]          mov AX,[RY]
  1368 000013FF 98                      cwde
  1369 00001400 05[00000000]            add EAX,list
  1370 00001405 89C3                    mov EBX,EAX
  1371 00001407 668B4302                mov AX,[EBX+2]
  1372 0000140B 66A3[00000000]          mov [RX],AX
  1373 00001411 668B03                  mov AX,[EBX]
  1374 00001414 6689C2                  mov DX,AX
  1375 00001417 6683E203                and DX,3
  1376 0000141B 668915[04000000]        mov [RX+4],DX
  1377 00001422 66C1F802                sar AX,2
  1378 00001426 66A3[02000000]          mov [RX+2],AX
  1379                                 
  1380 0000142C 66A1[04000000]          mov AX,[RY+4]
  1381 00001432 663B05[04000000]        cmp AX,[R1+4]
  1382 00001439 0F84D3FDFFFF            jz L11
  1383                                 
  1384 0000143F 66A1[00000000]          mov AX,[R8]
  1385 00001445 660305[00000000]        add AX,[R0]
  1386 0000144C 66A3[00000000]          mov [RY],AX
  1387                                 
  1388 00001452 66A1[04000000]          mov AX,[R1+4]
  1389 00001458 66A3[04000000]          mov [RY+4],AX
  1390                                 
  1391 0000145E 66A1[00000000]          mov AX,[RL]
  1392 00001464 660305[00000000]        add AX,[R1]
  1393 0000146B 66A3[00000000]          mov [RL],AX
  1394                                 
  1395 00001471 66A1[00000000]          mov AX,[RL]
  1396 00001477 660305[00000000]        add AX,[R0]
  1397 0000147E 66A3[00000000]          mov [RX],AX
  1398                                 
  1399 00001484 66A1[00000000]          mov AX,[R9]
  1400 0000148A 660305[00000000]        add AX,[R7]
  1401 00001491 66A3[00000000]          mov [RW],AX
  1402                                 
  1403 00001497 66A1[02000000]          mov AX,[R0+2]
  1404 0000149D 660305[02000000]        add AX,[R0+2]
  1405 000014A4 66A3[02000000]          mov [RY+2],AX
  1406                                 
  1407                                 
  1408                                 L13:
  1409                                 
  1410 000014AA 66A1[00000000]          mov AX,[RX]
  1411 000014B0 6699                    cwd
  1412 000014B2 66F73D[00000000]        idiv word [R5]
  1413 000014B9 66A3[00000000]          mov [RV],AX
  1414                                 
  1415 000014BF 66A1[00000000]          mov AX,[RV]
  1416 000014C5 66F72D[00000000]        imul word [R5]
  1417 000014CC 66A3[00000000]          mov [RZ],AX
  1418                                 
  1419 000014D2 66A1[00000000]          mov AX,[RX]
  1420 000014D8 662B05[00000000]        sub AX,[RZ]
  1421 000014DF 66A3[00000000]          mov [RX],AX
  1422                                 
  1423 000014E5 66A1[00000000]          mov AX,[RX]
  1424 000014EB 66A3[02000000]          mov [RX+2],AX
  1425                                 
  1426 000014F1 66A1[00000000]          mov AX,[RV]
  1427 000014F7 660305[00000000]        add AX,[R0]
  1428 000014FE 66A3[00000000]          mov [RX],AX
  1429                                 
  1430 00001504 66A1[00000000]          mov AX,[RW]
  1431 0000150A 662B05[00000000]        sub AX,[R7]
  1432 00001511 66A3[00000000]          mov [RW],AX
  1433                                 
  1434 00001517 66A1[00000000]          mov AX,[RW]
  1435 0000151D 98                      cwde
  1436 0000151E 05[00000000]            add EAX,list
  1437 00001523 89C3                    mov EBX,EAX
  1438 00001525 66A1[02000000]          mov AX,[RX+2]
  1439 0000152B 66C1E002                sal AX,2
  1440 0000152F 660B05[04000000]        or AX,[RX+4]
  1441 00001536 668903                  mov [EBX],AX
  1442 00001539 66A1[00000000]          mov AX,[RX]
  1443 0000153F 66894302                mov [EBX+2],AX
  1444                                 
  1445 00001543 66A1[02000000]          mov AX,[RY+2]
  1446 00001549 660305[02000000]        add AX,[R1+2]
  1447 00001550 66A3[02000000]          mov [RY+2],AX
  1448                                 
  1449 00001556 66A1[00000000]          mov AX,[R8]
  1450 0000155C 663B05[00000000]        cmp AX,[RW]
  1451 00001563 0F8DB73C0000            jge L97
  1452                                 
  1453 00001569 66A1[00000000]          mov AX,[RX]
  1454 0000156F 663B05[00000000]        cmp AX,[R0]
  1455 00001576 0F8528FFFFFF            jnz L13
  1456                                 
  1457                                 
  1458                                 L14:
  1459                                 
  1460 0000157C 66A1[00000000]          mov AX,[RW]
  1461 00001582 98                      cwde
  1462 00001583 05[00000000]            add EAX,list
  1463 00001588 89C3                    mov EBX,EAX
  1464 0000158A 668B4302                mov AX,[EBX+2]
  1465 0000158E 66A3[00000000]          mov [RX],AX
  1466 00001594 668B03                  mov AX,[EBX]
  1467 00001597 6689C2                  mov DX,AX
  1468 0000159A 6683E203                and DX,3
  1469 0000159E 668915[04000000]        mov [RX+4],DX
  1470 000015A5 66C1F802                sar AX,2
  1471 000015A9 66A3[02000000]          mov [RX+2],AX
  1472                                 
  1473 000015AF 66A1[00000000]          mov AX,[RW]
  1474 000015B5 660305[00000000]        add AX,[R7]
  1475 000015BC 66A3[00000000]          mov [RW],AX
  1476                                 
  1477 000015C2 66A1[02000000]          mov AX,[RX+2]
  1478 000015C8 660305[02000000]        add AX,[RE+2]
  1479 000015CF 66A3[02000000]          mov [RX+2],AX
  1480                                 
  1481 000015D5 66A1[00000000]          mov AX,[R8]
  1482 000015DB 660305[00000000]        add AX,[R7]
  1483 000015E2 66A3[00000000]          mov [RX],AX
  1484                                 
  1485 000015E8 66A1[00000000]          mov AX,[R8]
  1486 000015EE 98                      cwde
  1487 000015EF 05[00000000]            add EAX,list
  1488 000015F4 89C3                    mov EBX,EAX
  1489 000015F6 66A1[02000000]          mov AX,[RX+2]
  1490 000015FC 66C1E002                sal AX,2
  1491 00001600 660B05[04000000]        or AX,[RX+4]
  1492 00001607 668903                  mov [EBX],AX
  1493 0000160A 66A1[00000000]          mov AX,[RX]
  1494 00001610 66894302                mov [EBX+2],AX
  1495                                 
  1496 00001614 66A1[00000000]          mov AX,[RX]
  1497 0000161A 660305[00000000]        add AX,[R0]
  1498 00001621 66A3[00000000]          mov [R8],AX
  1499                                 
  1500 00001627 66A1[00000000]          mov AX,[R9]
  1501 0000162D 663B05[00000000]        cmp AX,[RW]
  1502 00001634 0F8D3CFFFFFF            jge L14
  1503                                 
  1504 0000163A 66A1[00000000]          mov AX,[R8]
  1505 00001640 98                      cwde
  1506 00001641 05[00000000]            add EAX,list
  1507 00001646 89C3                    mov EBX,EAX
  1508 00001648 66A1[02000000]          mov AX,[R0+2]
  1509 0000164E 66C1E002                sal AX,2
  1510 00001652 660B05[04000000]        or AX,[R0+4]
  1511 00001659 668903                  mov [EBX],AX
  1512 0000165C 66A1[00000000]          mov AX,[R0]
  1513 00001662 66894302                mov [EBX+2],AX
  1514                                 
  1515 00001666 66A1[00000000]          mov AX,[R8]
  1516 0000166C 660305[00000000]        add AX,[R7]
  1517 00001673 66A3[00000000]          mov [R8],AX
  1518                                 
  1519 00001679 66A1[00000000]          mov AX,[R8]
  1520 0000167F 663B05[00000000]        cmp AX,[R9]
  1521 00001686 0F8D943B0000            jge L97
  1522                                 
  1523 0000168C 66A1[00000000]          mov AX,[RU]
  1524 00001692 98                      cwde
  1525 00001693 05[00000000]            add EAX,list
  1526 00001698 89C3                    mov EBX,EAX
  1527 0000169A 66A1[02000000]          mov AX,[RY+2]
  1528 000016A0 66C1E002                sal AX,2
  1529 000016A4 660B05[04000000]        or AX,[RY+4]
  1530 000016AB 668903                  mov [EBX],AX
  1531 000016AE 66A1[00000000]          mov AX,[RY]
  1532 000016B4 66894302                mov [EBX+2],AX
  1533                                 
  1534 000016B8 66A1[00000000]          mov AX,[RY]
  1535 000016BE 98                      cwde
  1536 000016BF 05[00000000]            add EAX,list
  1537 000016C4 89C3                    mov EBX,EAX
  1538 000016C6 668B4302                mov AX,[EBX+2]
  1539 000016CA 66A3[00000000]          mov [RX],AX
  1540 000016D0 668B03                  mov AX,[EBX]
  1541 000016D3 6689C2                  mov DX,AX
  1542 000016D6 6683E203                and DX,3
  1543 000016DA 668915[04000000]        mov [RX+4],DX
  1544 000016E1 66C1F802                sar AX,2
  1545 000016E5 66A3[02000000]          mov [RX+2],AX
  1546                                 
  1547 000016EB 66A1[04000000]          mov AX,[R0+4]
  1548 000016F1 66A3[04000000]          mov [RI+4],AX
  1549                                 
  1550 000016F7 E917FBFFFF              jmp L11
  1551                                 
  1552                                 
  1553                                 L15:
  1554                                 
  1555 000016FC B8[00000000]            mov EAX,G106
  1556 00001701 2D[00000000]            sub EAX,progr
  1557 00001706 66A3[00000000]          mov [RP],AX
  1558 0000170C E939300000              jmp L74
  1559                                 G106:
  1560                                 
  1561 00001711 66A1[00000000]          mov AX,[RN]
  1562 00001717 663B05[00000000]        cmp AX,[R0]
  1563 0000171E 0F8DFC010000            jge L18
  1564                                 
  1565 00001724 66A1[00000000]          mov AX,[R9]
  1566 0000172A 662B05[00000000]        sub AX,[R7]
  1567 00001731 66A3[00000000]          mov [RO],AX
  1568                                 
  1569 00001737 66A1[00000000]          mov AX,[R8]
  1570 0000173D 663B05[00000000]        cmp AX,[RO]
  1571 00001744 0F8DD63A0000            jge L97
  1572                                 
  1573 0000174A 66A1[00000000]          mov AX,[R9]
  1574 00001750 98                      cwde
  1575 00001751 05[00000000]            add EAX,list
  1576 00001756 89C3                    mov EBX,EAX
  1577 00001758 66A1[02000000]          mov AX,[RO+2]
  1578 0000175E 66C1E002                sal AX,2
  1579 00001762 660B05[04000000]        or AX,[RO+4]
  1580 00001769 668903                  mov [EBX],AX
  1581 0000176C 66A1[00000000]          mov AX,[RO]
  1582 00001772 66894302                mov [EBX+2],AX
  1583                                 
  1584 00001776 66A1[00000000]          mov AX,[RO]
  1585 0000177C 660305[00000000]        add AX,[R0]
  1586 00001783 66A3[00000000]          mov [R9],AX
  1587                                 
  1588 00001789 66A1[00000000]          mov AX,[R0]
  1589 0000178F 662B05[00000000]        sub AX,[RN]
  1590 00001796 66A3[00000000]          mov [RN],AX
  1591                                 
  1592 0000179C E980010000              jmp L18
  1593                                 
  1594                                 
  1595                                 L16:
  1596                                 
  1597 000017A1 66A1[00000000]          mov AX,[RV]
  1598 000017A7 98                      cwde
  1599 000017A8 05[00000000]            add EAX,list
  1600 000017AD 89C3                    mov EBX,EAX
  1601 000017AF 668B4302                mov AX,[EBX+2]
  1602 000017B3 66A3[00000000]          mov [RY],AX
  1603 000017B9 668B03                  mov AX,[EBX]
  1604 000017BC 6689C2                  mov DX,AX
  1605 000017BF 6683E203                and DX,3
  1606 000017C3 668915[04000000]        mov [RY+4],DX
  1607 000017CA 66C1F802                sar AX,2
  1608 000017CE 66A3[02000000]          mov [RY+2],AX
  1609                                 
  1610 000017D4 66A1[04000000]          mov AX,[RY+4]
  1611 000017DA 663B05[04000000]        cmp AX,[R1+4]
  1612 000017E1 7438                    jz L17
  1613                                 
  1614 000017E3 66A1[00000000]          mov AX,[RV]
  1615 000017E9 662B05[00000000]        sub AX,[R7]
  1616 000017F0 66A3[00000000]          mov [RV],AX
  1617                                 
  1618 000017F6 66A1[02000000]          mov AX,[RY+2]
  1619 000017FC 663B05[02000000]        cmp AX,[RI+2]
  1620 00001803 759A                    jnz L16
  1621                                 
  1622 00001805 66A1[00000000]          mov AX,[RY]
  1623 0000180B 660305[00000000]        add AX,[R0]
  1624 00001812 66A3[00000000]          mov [RN],AX
  1625                                 
  1626 00001818 E904010000              jmp L18
  1627                                 
  1628                                 
  1629                                 L17:
  1630                                 
  1631 0000181D 66A1[00000000]          mov AX,[RV]
  1632 00001823 660305[00000000]        add AX,[RH]
  1633 0000182A 66A3[00000000]          mov [RY],AX
  1634                                 
  1635 00001830 66A1[00000000]          mov AX,[RY]
  1636 00001836 663B05[00000000]        cmp AX,[RJ]
  1637 0000183D 0F843A050000            jz L23
  1638                                 
  1639 00001843 66A1[00000000]          mov AX,[RL]
  1640 00001849 660305[00000000]        add AX,[R1]
  1641 00001850 66A3[00000000]          mov [RL],AX
  1642                                 
  1643 00001856 66A1[00000000]          mov AX,[RL]
  1644 0000185C 660305[00000000]        add AX,[R0]
  1645 00001863 66A3[00000000]          mov [RI],AX
  1646                                 
  1647 00001869 66A1[00000000]          mov AX,[RV]
  1648 0000186F 98                      cwde
  1649 00001870 05[00000000]            add EAX,list
  1650 00001875 89C3                    mov EBX,EAX
  1651 00001877 66A1[02000000]          mov AX,[RI+2]
  1652 0000187D 66C1E002                sal AX,2
  1653 00001881 660B05[04000000]        or AX,[RI+4]
  1654 00001888 668903                  mov [EBX],AX
  1655 0000188B 66A1[00000000]          mov AX,[RI]
  1656 00001891 66894302                mov [EBX+2],AX
  1657                                 
  1658 00001895 66A1[00000000]          mov AX,[RV]
  1659 0000189B 662B05[00000000]        sub AX,[R7]
  1660 000018A2 66A3[00000000]          mov [RV],AX
  1661                                 
  1662 000018A8 66A1[00000000]          mov AX,[RV]
  1663 000018AE 98                      cwde
  1664 000018AF 05[00000000]            add EAX,list
  1665 000018B4 89C3                    mov EBX,EAX
  1666 000018B6 668B4302                mov AX,[EBX+2]
  1667 000018BA 66A3[00000000]          mov [RY],AX
  1668 000018C0 668B03                  mov AX,[EBX]
  1669 000018C3 6689C2                  mov DX,AX
  1670 000018C6 6683E203                and DX,3
  1671 000018CA 668915[04000000]        mov [RY+4],DX
  1672 000018D1 66C1F802                sar AX,2
  1673 000018D5 66A3[02000000]          mov [RY+2],AX
  1674                                 
  1675 000018DB 66A1[04000000]          mov AX,[R1+4]
  1676 000018E1 66A3[04000000]          mov [RY+4],AX
  1677                                 
  1678 000018E7 66A1[00000000]          mov AX,[RV]
  1679 000018ED 98                      cwde
  1680 000018EE 05[00000000]            add EAX,list
  1681 000018F3 89C3                    mov EBX,EAX
  1682 000018F5 66A1[02000000]          mov AX,[RY+2]
  1683 000018FB 66C1E002                sal AX,2
  1684 000018FF 660B05[04000000]        or AX,[RY+4]
  1685 00001906 668903                  mov [EBX],AX
  1686 00001909 66A1[00000000]          mov AX,[RY]
  1687 0000190F 66894302                mov [EBX+2],AX
  1688                                 
  1689 00001913 66A1[00000000]          mov AX,[RL]
  1690 00001919 660305[00000000]        add AX,[R0]
  1691 00001920 66A3[00000000]          mov [RN],AX
  1692                                 
  1693                                 
  1694                                 L18:
  1695                                 
  1696 00001926 66A1[00000000]          mov AX,[RN]
  1697 0000192C 6699                    cwd
  1698 0000192E 66F73D[00000000]        idiv word [R5]
  1699 00001935 66A3[00000000]          mov [RY],AX
  1700                                 
  1701 0000193B 66A1[00000000]          mov AX,[RY]
  1702 00001941 66F72D[00000000]        imul word [R5]
  1703 00001948 66A3[00000000]          mov [RZ],AX
  1704                                 
  1705 0000194E 66A1[00000000]          mov AX,[RN]
  1706 00001954 662B05[00000000]        sub AX,[RZ]
  1707 0000195B 66A3[00000000]          mov [RX],AX
  1708                                 
  1709 00001961 66A1[04000000]          mov AX,[R0+4]
  1710 00001967 66A3[04000000]          mov [RX+4],AX
  1711                                 
  1712 0000196D 66A1[00000000]          mov AX,[RX]
  1713 00001973 66A3[02000000]          mov [RX+2],AX
  1714                                 
  1715 00001979 66A1[00000000]          mov AX,[RY]
  1716 0000197F 660305[00000000]        add AX,[R0]
  1717 00001986 66A3[00000000]          mov [RN],AX
  1718                                 
  1719 0000198C 66A1[02000000]          mov AX,[RG+2]
  1720 00001992 660305[02000000]        add AX,[R1+2]
  1721 00001999 66A3[02000000]          mov [RG+2],AX
  1722                                 
  1723 0000199F 66A1[00000000]          mov AX,[R8]
  1724 000019A5 660305[00000000]        add AX,[R7]
  1725 000019AC 66A3[00000000]          mov [R8],AX
  1726                                 
  1727 000019B2 66A1[00000000]          mov AX,[R8]
  1728 000019B8 98                      cwde
  1729 000019B9 05[00000000]            add EAX,list
  1730 000019BE 89C3                    mov EBX,EAX
  1731 000019C0 66A1[02000000]          mov AX,[RX+2]
  1732 000019C6 66C1E002                sal AX,2
  1733 000019CA 660B05[04000000]        or AX,[RX+4]
  1734 000019D1 668903                  mov [EBX],AX
  1735 000019D4 66A1[00000000]          mov AX,[RX]
  1736 000019DA 66894302                mov [EBX+2],AX
  1737                                 
  1738 000019DE 66A1[00000000]          mov AX,[RN]
  1739 000019E4 663B05[00000000]        cmp AX,[R0]
  1740 000019EB 0F852FFFFFFF            jnz L18
  1741                                 
  1742                                 
  1743                                 L19:
  1744                                 
  1745 000019F1 66A1[00000000]          mov AX,[R8]
  1746 000019F7 98                      cwde
  1747 000019F8 05[00000000]            add EAX,list
  1748 000019FD 89C3                    mov EBX,EAX
  1749 000019FF 668B4302                mov AX,[EBX+2]
  1750 00001A03 66A3[00000000]          mov [RX],AX
  1751 00001A09 668B03                  mov AX,[EBX]
  1752 00001A0C 6689C2                  mov DX,AX
  1753 00001A0F 6683E203                and DX,3
  1754 00001A13 668915[04000000]        mov [RX+4],DX
  1755 00001A1A 66C1F802                sar AX,2
  1756 00001A1E 66A3[02000000]          mov [RX+2],AX
  1757                                 
  1758 00001A24 66A1[00000000]          mov AX,[R8]
  1759 00001A2A 662B05[00000000]        sub AX,[R7]
  1760 00001A31 66A3[00000000]          mov [R8],AX
  1761                                 
  1762 00001A37 66A1[02000000]          mov AX,[RG+2]
  1763 00001A3D 662B05[02000000]        sub AX,[R1+2]
  1764 00001A44 66A3[02000000]          mov [RG+2],AX
  1765                                 
  1766 00001A4A 66A1[02000000]          mov AX,[RX+2]
  1767 00001A50 660305[02000000]        add AX,[RE+2]
  1768 00001A57 66A3[02000000]          mov [RX+2],AX
  1769                                 
  1770 00001A5D 66A1[00000000]          mov AX,[R9]
  1771 00001A63 662B05[00000000]        sub AX,[R7]
  1772 00001A6A 66A3[00000000]          mov [RX],AX
  1773                                 
  1774 00001A70 66A1[00000000]          mov AX,[R9]
  1775 00001A76 98                      cwde
  1776 00001A77 05[00000000]            add EAX,list
  1777 00001A7C 89C3                    mov EBX,EAX
  1778 00001A7E 66A1[02000000]          mov AX,[RX+2]
  1779 00001A84 66C1E002                sal AX,2
  1780 00001A88 660B05[04000000]        or AX,[RX+4]
  1781 00001A8F 668903                  mov [EBX],AX
  1782 00001A92 66A1[00000000]          mov AX,[RX]
  1783 00001A98 66894302                mov [EBX+2],AX
  1784                                 
  1785 00001A9C 66A1[00000000]          mov AX,[RX]
  1786 00001AA2 660305[00000000]        add AX,[R0]
  1787 00001AA9 66A3[00000000]          mov [R9],AX
  1788                                 
  1789 00001AAF 66A1[02000000]          mov AX,[RG+2]
  1790 00001AB5 663B05[02000000]        cmp AX,[R0+2]
  1791 00001ABC 0F8529FFFFFF            jnz L19
  1792                                 
  1793 00001AC2 E914F2FFFF              jmp L07
  1794                                 
  1795                                 
  1796                                 L20:
  1797                                 
  1798 00001AC7 66A1[00000000]          mov AX,[RX]
  1799 00001ACD 98                      cwde
  1800 00001ACE 05[00000000]            add EAX,list
  1801 00001AD3 89C3                    mov EBX,EAX
  1802 00001AD5 668B4302                mov AX,[EBX+2]
  1803 00001AD9 66A3[00000000]          mov [RX],AX
  1804 00001ADF 668B03                  mov AX,[EBX]
  1805 00001AE2 6689C2                  mov DX,AX
  1806 00001AE5 6683E203                and DX,3
  1807 00001AE9 668915[04000000]        mov [RX+4],DX
  1808 00001AF0 66C1F802                sar AX,2
  1809 00001AF4 66A3[02000000]          mov [RX+2],AX
  1810                                 
  1811 00001AFA 66A1[02000000]          mov AX,[RY+2]
  1812 00001B00 662B05[02000000]        sub AX,[R1+2]
  1813 00001B07 66A3[02000000]          mov [RY+2],AX
  1814                                 
  1815 00001B0D 66A1[02000000]          mov AX,[RY+2]
  1816 00001B13 663B05[02000000]        cmp AX,[RL+2]
  1817 00001B1A 75A9                    jnz L20
  1818                                 
  1819 00001B1C 66A1[04000000]          mov AX,[RX+4]
  1820 00001B22 663B05[04000000]        cmp AX,[R1+4]
  1821 00001B29 0F84ABF1FFFF            jz L07
  1822                                 
  1823 00001B2F 66A1[00000000]          mov AX,[R9]
  1824 00001B35 662B05[00000000]        sub AX,[R7]
  1825 00001B3C 66A3[00000000]          mov [RX],AX
  1826                                 
  1827 00001B42 66A1[00000000]          mov AX,[R8]
  1828 00001B48 663B05[00000000]        cmp AX,[RX]
  1829 00001B4F 0F8DCB360000            jge L97
  1830                                 
  1831 00001B55 66A1[00000000]          mov AX,[R9]
  1832 00001B5B 98                      cwde
  1833 00001B5C 05[00000000]            add EAX,list
  1834 00001B61 89C3                    mov EBX,EAX
  1835 00001B63 66A1[02000000]          mov AX,[RX+2]
  1836 00001B69 66C1E002                sal AX,2
  1837 00001B6D 660B05[04000000]        or AX,[RX+4]
  1838 00001B74 668903                  mov [EBX],AX
  1839 00001B77 66A1[00000000]          mov AX,[RX]
  1840 00001B7D 66894302                mov [EBX+2],AX
  1841                                 
  1842 00001B81 66A1[00000000]          mov AX,[RX]
  1843 00001B87 660305[00000000]        add AX,[R0]
  1844 00001B8E 66A3[00000000]          mov [R9],AX
  1845                                 
  1846 00001B94 E942F1FFFF              jmp L07
  1847                                 
  1848                                 
  1849                                 L21:
  1850                                 
  1851 00001B99 66A1[00000000]          mov AX,[R9]
  1852 00001B9F 98                      cwde
  1853 00001BA0 05[00000000]            add EAX,list
  1854 00001BA5 89C3                    mov EBX,EAX
  1855 00001BA7 66A1[02000000]          mov AX,[RL+2]
  1856 00001BAD 66C1E002                sal AX,2
  1857 00001BB1 660B05[04000000]        or AX,[RL+4]
  1858 00001BB8 668903                  mov [EBX],AX
  1859 00001BBB 66A1[00000000]          mov AX,[RL]
  1860 00001BC1 66894302                mov [EBX+2],AX
  1861                                 
  1862 00001BC5 66A1[00000000]          mov AX,[RK]
  1863 00001BCB 660305[00000000]        add AX,[R7]
  1864 00001BD2 66A3[00000000]          mov [RK],AX
  1865                                 
  1866 00001BD8 66A1[00000000]          mov AX,[RC]
  1867 00001BDE 662B05[00000000]        sub AX,[R9]
  1868 00001BE5 66A3[00000000]          mov [RY],AX
  1869                                 
  1870 00001BEB 66A1[00000000]          mov AX,[RY]
  1871 00001BF1 6699                    cwd
  1872 00001BF3 66F73D[00000000]        idiv word [R7]
  1873 00001BFA 66A3[00000000]          mov [RY],AX
  1874                                 
  1875 00001C00 66A1[04000000]          mov AX,[R0+4]
  1876 00001C06 66A3[04000000]          mov [RY+4],AX
  1877                                 
  1878 00001C0C 66A1[00000000]          mov AX,[RY]
  1879 00001C12 66A3[02000000]          mov [RY+2],AX
  1880                                 
  1881 00001C18 66A1[00000000]          mov AX,[RC]
  1882 00001C1E 660305[00000000]        add AX,[R0]
  1883 00001C25 66A3[00000000]          mov [RY],AX
  1884                                 
  1885 00001C2B 66A1[00000000]          mov AX,[RV]
  1886 00001C31 98                      cwde
  1887 00001C32 05[00000000]            add EAX,list
  1888 00001C37 89C3                    mov EBX,EAX
  1889 00001C39 66A1[02000000]          mov AX,[RY+2]
  1890 00001C3F 66C1E002                sal AX,2
  1891 00001C43 660B05[04000000]        or AX,[RY+4]
  1892 00001C4A 668903                  mov [EBX],AX
  1893 00001C4D 66A1[00000000]          mov AX,[RY]
  1894 00001C53 66894302                mov [EBX+2],AX
  1895                                 
  1896 00001C57 66A1[00000000]          mov AX,[R9]
  1897 00001C5D 662B05[00000000]        sub AX,[R7]
  1898 00001C64 66A3[00000000]          mov [RC],AX
  1899                                 
  1900 00001C6A E925EEFFFF              jmp L05
  1901                                 
  1902                                 
  1903                                 L22:
  1904                                 
  1905 00001C6F 66A1[00000000]          mov AX,[RJ]
  1906 00001C75 660305[00000000]        add AX,[R0]
  1907 00001C7C 66A3[00000000]          mov [RV],AX
  1908                                 
  1909 00001C82 66A1[00000000]          mov AX,[RI]
  1910 00001C88 663B05[00000000]        cmp AX,[R0]
  1911 00001C8F 0F8406FBFFFF            jz L16
  1912                                 
  1913 00001C95 66A1[02000000]          mov AX,[RI+2]
  1914 00001C9B 663B05[02000000]        cmp AX,[R9+2]
  1915 00001CA2 0F8483F1FFFF            jz L08
  1916                                 
  1917 00001CA8 66A1[00000000]          mov AX,[RV]
  1918 00001CAE 660305[00000000]        add AX,[R7]
  1919 00001CB5 66A3[00000000]          mov [RV],AX
  1920                                 
  1921 00001CBB 66A1[00000000]          mov AX,[RK]
  1922 00001CC1 660305[00000000]        add AX,[R7]
  1923 00001CC8 66A3[00000000]          mov [RK],AX
  1924                                 
  1925 00001CCE 66A1[02000000]          mov AX,[RI+2]
  1926 00001CD4 663B05[02000000]        cmp AX,[R1+2]
  1927 00001CDB 0F84E0000000            jz L32
  1928                                 
  1929 00001CE1 66A1[02000000]          mov AX,[RI+2]
  1930 00001CE7 663B05[02000000]        cmp AX,[R2+2]
  1931 00001CEE 0F84CD000000            jz L32
  1932                                 
  1933 00001CF4 66A1[02000000]          mov AX,[RI+2]
  1934 00001CFA 663B05[02000000]        cmp AX,[R3+2]
  1935 00001D01 0F845A070000            jz L33
  1936                                 
  1937 00001D07 66A1[02000000]          mov AX,[RI+2]
  1938 00001D0D 663B05[02000000]        cmp AX,[R4+2]
  1939 00001D14 0F84FC0E0000            jz L42
  1940                                 
  1941 00001D1A 66A1[02000000]          mov AX,[RI+2]
  1942 00001D20 663B05[02000000]        cmp AX,[R5+2]
  1943 00001D27 0F84490B0000            jz L36
  1944                                 
  1945 00001D2D 66A1[02000000]          mov AX,[RI+2]
  1946 00001D33 663B05[02000000]        cmp AX,[R6+2]
  1947 00001D3A 0F841E0D0000            jz L39
  1948                                 
  1949 00001D40 66A1[02000000]          mov AX,[RI+2]
  1950 00001D46 663B05[02000000]        cmp AX,[R7+2]
  1951 00001D4D 0F84490F0000            jz L43
  1952                                 
  1953 00001D53 66A1[02000000]          mov AX,[RI+2]
  1954 00001D59 663B05[02000000]        cmp AX,[R8+2]
  1955 00001D60 0F8498160000            jz L47
  1956                                 
  1957 00001D66 66A1[02000000]          mov AX,[RI+2]
  1958 00001D6C 663B05[02000000]        cmp AX,[R0+2]
  1959 00001D73 750C                    jnz L23
  1960                                 
  1961 00001D75 31C0                    xor EAX,EAX
  1962 00001D77 890424                  mov [ESP],EAX
  1963 00001D7A E8(F6FFFFFF)            call exit
  1964 00001D7F 5D                      pop EBP
  1965 00001D80 31C0                    xor EAX,EAX
  1966 00001D82 C3                      ret
  1967                                 
  1968                                 
  1969                                 L23:
  1970                                 
  1971 00001D83 BB[00000000]            mov EBX,MB
  1972 00001D88 C6430A43                mov byte [EBX+10],067
  1973 00001D8C C6430B4F                mov byte [EBX+11],079
  1974 00001D90 C6430C4E                mov byte [EBX+12],078
  1975 00001D94 C6430D56                mov byte [EBX+13],086
  1976 00001D98 66A1[02000000]          mov AX,[R4+2]
  1977 00001D9E 98                      cwde
  1978 00001D9F 890424                  mov [ESP],EAX
  1979 00001DA2 E8(F6FFFFFF)            call iprnt
  1980 00001DA7 66A3[04000000]          mov [R4+4],AX
  1981                                 
  1982 00001DAD B8[00000000]            mov EAX,G107
  1983 00001DB2 2D[00000000]            sub EAX,progr
  1984 00001DB7 66A3[00000000]          mov [RB],AX
  1985 00001DBD E9AE320000              jmp L94
  1986                                 G107:
  1987                                 
  1988 00001DC2 E914EFFFFF              jmp L07
  1989                                 
  1990                                 
  1991                                 L32:
  1992                                 
  1993 00001DC7 66A1[00000000]          mov AX,[RK]
  1994 00001DCD 98                      cwde
  1995 00001DCE 05[00000000]            add EAX,list
  1996 00001DD3 89C3                    mov EBX,EAX
  1997 00001DD5 668B4302                mov AX,[EBX+2]
  1998 00001DD9 66A3[00000000]          mov [RX],AX
  1999 00001DDF 668B03                  mov AX,[EBX]
  2000 00001DE2 6689C2                  mov DX,AX
  2001 00001DE5 6683E203                and DX,3
  2002 00001DE9 668915[04000000]        mov [RX+4],DX
  2003 00001DF0 66C1F802                sar AX,2
  2004 00001DF4 66A3[02000000]          mov [RX+2],AX
  2005                                 
  2006 00001DFA 66A1[02000000]          mov AX,[R3+2]
  2007 00001E00 660305[02000000]        add AX,[R0+2]
  2008 00001E07 66A3[02000000]          mov [RW+2],AX
  2009                                 
  2010 00001E0D 66A1[04000000]          mov AX,[RX+4]
  2011 00001E13 663B05[04000000]        cmp AX,[R1+4]
  2012 00001E1A 0F848A000000            jz L24
  2013                                 
  2014 00001E20 66A1[00000000]          mov AX,[RK]
  2015 00001E26 660305[00000000]        add AX,[R7]
  2016 00001E2D 66A3[00000000]          mov [RK],AX
  2017                                 
  2018 00001E33 66A1[02000000]          mov AX,[RX+2]
  2019 00001E39 662B05[02000000]        sub AX,[RE+2]
  2020 00001E40 66A3[02000000]          mov [RW+2],AX
  2021                                 
  2022 00001E46 66A1[00000000]          mov AX,[RK]
  2023 00001E4C 98                      cwde
  2024 00001E4D 05[00000000]            add EAX,list
  2025 00001E52 89C3                    mov EBX,EAX
  2026 00001E54 668B4302                mov AX,[EBX+2]
  2027 00001E58 66A3[00000000]          mov [RX],AX
  2028 00001E5E 668B03                  mov AX,[EBX]
  2029 00001E61 6689C2                  mov DX,AX
  2030 00001E64 6683E203                and DX,3
  2031 00001E68 668915[04000000]        mov [RX+4],DX
  2032 00001E6F 66C1F802                sar AX,2
  2033 00001E73 66A3[02000000]          mov [RX+2],AX
  2034                                 
  2035 00001E79 66A1[04000000]          mov AX,[RX+4]
  2036 00001E7F 663B05[04000000]        cmp AX,[R1+4]
  2037 00001E86 7426                    jz L24
  2038                                 
  2039 00001E88 66A1[02000000]          mov AX,[RW+2]
  2040 00001E8E 98                      cwde
  2041 00001E8F 890424                  mov [ESP],EAX
  2042 00001E92 E8(F6FFFFFF)            call icntl
  2043 00001E97 66A3[04000000]          mov [RW+4],AX
  2044                                 
  2045 00001E9D 66A1[00000000]          mov AX,[RK]
  2046 00001EA3 660305[00000000]        add AX,[R7]
  2047 00001EAA 66A3[00000000]          mov [RK],AX
  2048                                 
  2049                                 
  2050                                 L24:
  2051                                 
  2052 00001EB0 66A1[02000000]          mov AX,[RI+2]
  2053 00001EB6 663B05[02000000]        cmp AX,[R2+2]
  2054 00001EBD 0F845E030000            jz L31
  2055                                 
  2056 00001EC3 66A1[00000000]          mov AX,[R9]
  2057 00001EC9 98                      cwde
  2058 00001ECA 05[00000000]            add EAX,list
  2059 00001ECF 89C3                    mov EBX,EAX
  2060 00001ED1 66A1[02000000]          mov AX,[RL+2]
  2061 00001ED7 66C1E002                sal AX,2
  2062 00001EDB 660B05[04000000]        or AX,[RL+4]
  2063 00001EE2 668903                  mov [EBX],AX
  2064 00001EE5 66A1[00000000]          mov AX,[RL]
  2065 00001EEB 66894302                mov [EBX+2],AX
  2066                                 
  2067 00001EEF 66A1[00000000]          mov AX,[RC]
  2068 00001EF5 660305[00000000]        add AX,[R0]
  2069 00001EFC 66A3[00000000]          mov [RX],AX
  2070                                 
  2071 00001F02 66A1[00000000]          mov AX,[RC]
  2072 00001F08 663B05[00000000]        cmp AX,[R9]
  2073 00001F0F 0F85FE1D0000            jnz L57
  2074                                 
  2075 00001F15 66A1[00000000]          mov AX,[RK]
  2076 00001F1B 660305[00000000]        add AX,[R7]
  2077 00001F22 66A3[00000000]          mov [RK],AX
  2078                                 
  2079 00001F28 66A1[00000000]          mov AX,[RK]
  2080 00001F2E 98                      cwde
  2081 00001F2F 05[00000000]            add EAX,list
  2082 00001F34 89C3                    mov EBX,EAX
  2083 00001F36 668B4302                mov AX,[EBX+2]
  2084 00001F3A 66A3[00000000]          mov [RI],AX
  2085 00001F40 668B03                  mov AX,[EBX]
  2086 00001F43 6689C2                  mov DX,AX
  2087 00001F46 6683E203                and DX,3
  2088 00001F4A 668915[04000000]        mov [RI+4],DX
  2089 00001F51 66C1F802                sar AX,2
  2090 00001F55 66A3[02000000]          mov [RI+2],AX
  2091                                 
  2092 00001F5B 66A1[04000000]          mov AX,[RI+4]
  2093 00001F61 663B05[04000000]        cmp AX,[R1+4]
  2094 00001F68 7516                    jnz L25
  2095                                 
  2096 00001F6A 66A1[00000000]          mov AX,[RK]
  2097 00001F70 662B05[00000000]        sub AX,[R7]
  2098 00001F77 66A3[00000000]          mov [RK],AX
  2099                                 
  2100 00001F7D E9FCFDFFFF              jmp L23
  2101                                 
  2102                                 
  2103                                 L25:
  2104                                 
  2105 00001F82 66A1[02000000]          mov AX,[RI+2]
  2106 00001F88 66A3[00000000]          mov [RZ],AX
  2107                                 
  2108 00001F8E 66A1[00000000]          mov AX,[RZ]
  2109 00001F94 662B05[00000000]        sub AX,[RE]
  2110 00001F9B 66A3[00000000]          mov [RZ],AX
  2111                                 
  2112 00001FA1 66A1[00000000]          mov AX,[RZ]
  2113 00001FA7 663B05[00000000]        cmp AX,[R5]
  2114 00001FAE 0F8DFA010000            jge L28
  2115                                 
  2116 00001FB4 66A1[00000000]          mov AX,[R0]
  2117 00001FBA 663B05[00000000]        cmp AX,[RZ]
  2118 00001FC1 0F8DE7010000            jge L28
  2119                                 
  2120 00001FC7 66A1[02000000]          mov AX,[RI+2]
  2121 00001FCD 660305[02000000]        add AX,[R0+2]
  2122 00001FD4 66A3[02000000]          mov [RX+2],AX
  2123                                 
  2124 00001FDA 66A1[00000000]          mov AX,[RZ]
  2125 00001FE0 66F72D[00000000]        imul word [R7]
  2126 00001FE7 66A3[00000000]          mov [RZ],AX
  2127                                 
  2128 00001FED 66A1[00000000]          mov AX,[RJ]
  2129 00001FF3 660305[00000000]        add AX,[RZ]
  2130 00001FFA 66A3[00000000]          mov [RY],AX
  2131                                 
  2132 00002000 66A1[00000000]          mov AX,[RY]
  2133 00002006 98                      cwde
  2134 00002007 05[00000000]            add EAX,list
  2135 0000200C 89C3                    mov EBX,EAX
  2136 0000200E 668B4302                mov AX,[EBX+2]
  2137 00002012 66A3[00000000]          mov [RY],AX
  2138 00002018 668B03                  mov AX,[EBX]
  2139 0000201B 6689C2                  mov DX,AX
  2140 0000201E 6683E203                and DX,3
  2141 00002022 668915[04000000]        mov [RY+4],DX
  2142 00002029 66C1F802                sar AX,2
  2143 0000202D 66A3[02000000]          mov [RY+2],AX
  2144                                 
  2145 00002033 66A1[04000000]          mov AX,[RY+4]
  2146 00002039 663B05[04000000]        cmp AX,[R3+4]
  2147 00002040 0F84F9000000            jz L27
  2148                                 
  2149 00002046 66A1[00000000]          mov AX,[RY]
  2150 0000204C 98                      cwde
  2151 0000204D 05[00000000]            add EAX,list
  2152 00002052 89C3                    mov EBX,EAX
  2153 00002054 668B4302                mov AX,[EBX+2]
  2154 00002058 66A3[00000000]          mov [RZ],AX
  2155 0000205E 668B03                  mov AX,[EBX]
  2156 00002061 6689C2                  mov DX,AX
  2157 00002064 6683E203                and DX,3
  2158 00002068 668915[04000000]        mov [RZ+4],DX
  2159 0000206F 66C1F802                sar AX,2
  2160 00002073 66A3[02000000]          mov [RZ+2],AX
  2161                                 
  2162                                 
  2163                                 L26:
  2164                                 
  2165 00002079 66A1[02000000]          mov AX,[RY+2]
  2166 0000207F 663B05[02000000]        cmp AX,[R0+2]
  2167 00002086 0F84B3000000            jz L27
  2168                                 
  2169 0000208C 66A1[02000000]          mov AX,[RZ+2]
  2170 00002092 98                      cwde
  2171 00002093 890424                  mov [ESP],EAX
  2172 00002096 E8(F6FFFFFF)            call iwrch
  2173 0000209B 66A3[04000000]          mov [RZ+4],AX
  2174                                 
  2175 000020A1 66A1[00000000]          mov AX,[RZ]
  2176 000020A7 98                      cwde
  2177 000020A8 05[00000000]            add EAX,list
  2178 000020AD 89C3                    mov EBX,EAX
  2179 000020AF 668B4302                mov AX,[EBX+2]
  2180 000020B3 66A3[00000000]          mov [RZ],AX
  2181 000020B9 668B03                  mov AX,[EBX]
  2182 000020BC 6689C2                  mov DX,AX
  2183 000020BF 6683E203                and DX,3
  2184 000020C3 668915[04000000]        mov [RZ+4],DX
  2185 000020CA 66C1F802                sar AX,2
  2186 000020CE 66A3[02000000]          mov [RZ+2],AX
  2187                                 
  2188 000020D4 66A1[02000000]          mov AX,[RY+2]
  2189 000020DA 662B05[02000000]        sub AX,[R1+2]
  2190 000020E1 66A3[02000000]          mov [RY+2],AX
  2191                                 
  2192 000020E7 66A1[00000000]          mov AX,[RK]
  2193 000020ED 660305[00000000]        add AX,[R7]
  2194 000020F4 66A3[00000000]          mov [RK],AX
  2195                                 
  2196 000020FA 66A1[00000000]          mov AX,[RK]
  2197 00002100 98                      cwde
  2198 00002101 05[00000000]            add EAX,list
  2199 00002106 89C3                    mov EBX,EAX
  2200 00002108 668B4302                mov AX,[EBX+2]
  2201 0000210C 66A3[00000000]          mov [RI],AX
  2202 00002112 668B03                  mov AX,[EBX]
  2203 00002115 6689C2                  mov DX,AX
  2204 00002118 6683E203                and DX,3
  2205 0000211C 668915[04000000]        mov [RI+4],DX
  2206 00002123 66C1F802                sar AX,2
  2207 00002127 66A3[02000000]          mov [RI+2],AX
  2208                                 
  2209 0000212D 66A1[02000000]          mov AX,[RI+2]
  2210 00002133 663B05[02000000]        cmp AX,[RX+2]
  2211 0000213A 0F8433FFFFFF            jz L26
  2212                                 
  2213 00002140 E938FEFFFF              jmp L25
  2214                                 
  2215                                 
  2216                                 L27:
  2217                                 
  2218 00002145 66A1[02000000]          mov AX,[RF+2]
  2219 0000214B 98                      cwde
  2220 0000214C 890424                  mov [ESP],EAX
  2221 0000214F E8(F6FFFFFF)            call iwrch
  2222 00002154 66A3[04000000]          mov [RF+4],AX
  2223                                 
  2224 0000215A 66A1[00000000]          mov AX,[RK]
  2225 00002160 660305[00000000]        add AX,[R7]
  2226 00002167 66A3[00000000]          mov [RK],AX
  2227                                 
  2228 0000216D 66A1[00000000]          mov AX,[RK]
  2229 00002173 98                      cwde
  2230 00002174 05[00000000]            add EAX,list
  2231 00002179 89C3                    mov EBX,EAX
  2232 0000217B 668B4302                mov AX,[EBX+2]
  2233 0000217F 66A3[00000000]          mov [RI],AX
  2234 00002185 668B03                  mov AX,[EBX]
  2235 00002188 6689C2                  mov DX,AX
  2236 0000218B 6683E203                and DX,3
  2237 0000218F 668915[04000000]        mov [RI+4],DX
  2238 00002196 66C1F802                sar AX,2
  2239 0000219A 66A3[02000000]          mov [RI+2],AX
  2240                                 
  2241 000021A0 66A1[02000000]          mov AX,[RI+2]
  2242 000021A6 663B05[02000000]        cmp AX,[RX+2]
  2243 000021AD 7494                    jz L27
  2244                                 
  2245 000021AF E9C9FDFFFF              jmp L25
  2246                                 
  2247                                 
  2248                                 L28:
  2249                                 
  2250 000021B4 66A1[04000000]          mov AX,[RI+4]
  2251 000021BA 663B05[04000000]        cmp AX,[R1+4]
  2252 000021C1 0F844C1B0000            jz L57
  2253                                 
  2254 000021C7 66A1[02000000]          mov AX,[RI+2]
  2255 000021CD 98                      cwde
  2256 000021CE 890424                  mov [ESP],EAX
  2257 000021D1 E8(F6FFFFFF)            call iwrch
  2258 000021D6 66A3[04000000]          mov [RI+4],AX
  2259                                 
  2260 000021DC 66A1[00000000]          mov AX,[RK]
  2261 000021E2 660305[00000000]        add AX,[R7]
  2262 000021E9 66A3[00000000]          mov [RK],AX
  2263                                 
  2264 000021EF 66A1[00000000]          mov AX,[RK]
  2265 000021F5 98                      cwde
  2266 000021F6 05[00000000]            add EAX,list
  2267 000021FB 89C3                    mov EBX,EAX
  2268 000021FD 668B4302                mov AX,[EBX+2]
  2269 00002201 66A3[00000000]          mov [RI],AX
  2270 00002207 668B03                  mov AX,[EBX]
  2271 0000220A 6689C2                  mov DX,AX
  2272 0000220D 6683E203                and DX,3
  2273 00002211 668915[04000000]        mov [RI+4],DX
  2274 00002218 66C1F802                sar AX,2
  2275 0000221C 66A3[02000000]          mov [RI+2],AX
  2276                                 
  2277 00002222 E956FDFFFF              jmp L25
  2278                                 
  2279                                 
  2280                                 L31:
  2281                                 
  2282 00002227 66A1[00000000]          mov AX,[RA]
  2283 0000222D 98                      cwde
  2284 0000222E 05[00000000]            add EAX,list
  2285 00002233 89C3                    mov EBX,EAX
  2286 00002235 668B4302                mov AX,[EBX+2]
  2287 00002239 66A3[00000000]          mov [RI],AX
  2288 0000223F 668B03                  mov AX,[EBX]
  2289 00002242 6689C2                  mov DX,AX
  2290 00002245 6683E203                and DX,3
  2291 00002249 668915[04000000]        mov [RI+4],DX
  2292 00002250 66C1F802                sar AX,2
  2293 00002254 66A3[02000000]          mov [RI+2],AX
  2294                                 
  2295 0000225A 66A1[00000000]          mov AX,[RC]
  2296 00002260 663B05[00000000]        cmp AX,[R9]
  2297 00002267 0F84A3000000            jz L29
  2298                                 
  2299 0000226D 66A1[00000000]          mov AX,[RC]
  2300 00002273 98                      cwde
  2301 00002274 05[00000000]            add EAX,list
  2302 00002279 89C3                    mov EBX,EAX
  2303 0000227B 668B4302                mov AX,[EBX+2]
  2304 0000227F 66A3[00000000]          mov [RX],AX
  2305 00002285 668B03                  mov AX,[EBX]
  2306 00002288 6689C2                  mov DX,AX
  2307 0000228B 6683E203                and DX,3
  2308 0000228F 668915[04000000]        mov [RX+4],DX
  2309 00002296 66C1F802                sar AX,2
  2310 0000229A 66A3[02000000]          mov [RX+2],AX
  2311                                 
  2312 000022A0 66A1[02000000]          mov AX,[RX+2]
  2313 000022A6 662B05[02000000]        sub AX,[RE+2]
  2314 000022AD 66A3[02000000]          mov [RI+2],AX
  2315                                 
  2316 000022B3 66A1[00000000]          mov AX,[RA]
  2317 000022B9 98                      cwde
  2318 000022BA 05[00000000]            add EAX,list
  2319 000022BF 89C3                    mov EBX,EAX
  2320 000022C1 66A1[02000000]          mov AX,[RI+2]
  2321 000022C7 66C1E002                sal AX,2
  2322 000022CB 660B05[04000000]        or AX,[RI+4]
  2323 000022D2 668903                  mov [EBX],AX
  2324 000022D5 66A1[00000000]          mov AX,[RI]
  2325 000022DB 66894302                mov [EBX+2],AX
  2326                                 
  2327 000022DF 66A1[00000000]          mov AX,[RX]
  2328 000022E5 663B05[00000000]        cmp AX,[R9]
  2329 000022EC 7426                    jz L29
  2330                                 
  2331 000022EE 66A1[02000000]          mov AX,[RI+2]
  2332 000022F4 98                      cwde
  2333 000022F5 890424                  mov [ESP],EAX
  2334 000022F8 E8(F6FFFFFF)            call icntl
  2335 000022FD 66A3[04000000]          mov [RI+4],AX
  2336                                 
  2337 00002303 66A1[04000000]          mov AX,[RI+4]
  2338 00002309 663B05[04000000]        cmp AX,[R0+4]
  2339 00002310 0F85572F0000            jnz L98
  2340                                 
  2341                                 
  2342                                 L29:
  2343                                 
  2344 00002316 66A1[00000000]          mov AX,[RV]
  2345 0000231C 98                      cwde
  2346 0000231D 05[00000000]            add EAX,list
  2347 00002322 89C3                    mov EBX,EAX
  2348 00002324 668B4302                mov AX,[EBX+2]
  2349 00002328 66A3[00000000]          mov [RX],AX
  2350 0000232E 668B03                  mov AX,[EBX]
  2351 00002331 6689C2                  mov DX,AX
  2352 00002334 6683E203                and DX,3
  2353 00002338 668915[04000000]        mov [RX+4],DX
  2354 0000233F 66C1F802                sar AX,2
  2355 00002343 66A3[02000000]          mov [RX+2],AX
  2356                                 
  2357 00002349 66A1[02000000]          mov AX,[RX+2]
  2358 0000234F 663B05[02000000]        cmp AX,[R0+2]
  2359 00002356 0F8437E7FFFF            jz L05
  2360                                 
  2361 0000235C 66A1[04000000]          mov AX,[RX+4]
  2362 00002362 663B05[04000000]        cmp AX,[R3+4]
  2363 00002369 0F8424E7FFFF            jz L05
  2364                                 
  2365 0000236F 66A1[00000000]          mov AX,[RX]
  2366 00002375 660305[00000000]        add AX,[R0]
  2367 0000237C 66A3[00000000]          mov [RY],AX
  2368                                 
  2369 00002382 66A1[02000000]          mov AX,[RI+2]
  2370 00002388 98                      cwde
  2371 00002389 890424                  mov [ESP],EAX
  2372 0000238C E8(F6FFFFFF)            call iread
  2373 00002391 66A3[04000000]          mov [RI+4],AX
  2374                                 
  2375 00002397 66A1[04000000]          mov AX,[RI+4]
  2376 0000239D 663B05[04000000]        cmp AX,[R0+4]
  2377 000023A4 0F85C32E0000            jnz L98
  2378                                 
  2379                                 
  2380                                 L30:
  2381                                 
  2382 000023AA 66A1[02000000]          mov AX,[RX+2]
  2383 000023B0 663B05[02000000]        cmp AX,[R0+2]
  2384 000023B7 0F84D6E6FFFF            jz L05
  2385                                 
  2386 000023BD 66A1[02000000]          mov AX,[RX+2]
  2387 000023C3 662B05[02000000]        sub AX,[R1+2]
  2388 000023CA 66A3[02000000]          mov [RX+2],AX
  2389                                 
  2390 000023D0 66A1[00000000]          mov AX,[RY]
  2391 000023D6 98                      cwde
  2392 000023D7 05[00000000]            add EAX,list
  2393 000023DC 89C3                    mov EBX,EAX
  2394 000023DE 668B4302                mov AX,[EBX+2]
  2395 000023E2 66A3[00000000]          mov [RY],AX
  2396 000023E8 668B03                  mov AX,[EBX]
  2397 000023EB 6689C2                  mov DX,AX
  2398 000023EE 6683E203                and DX,3
  2399 000023F2 668915[04000000]        mov [RY+4],DX
  2400 000023F9 66C1F802                sar AX,2
  2401 000023FD 66A3[02000000]          mov [RY+2],AX
  2402                                 
  2403 00002403 8B1D[00000000]          mov EBX,[LBR]
  2404 00002409 8A83[00000000]          mov AL,[LINE+EBX]
  2405 0000240F 6698                    cbw
  2406 00002411 66A3[02000000]          mov [RZ+2],AX
  2407 00002417 43                      inc EBX
  2408 00002418 891D[00000000]          mov [LBR],EBX
  2409                                 
  2410 0000241E 66A1[02000000]          mov AX,[RY+2]
  2411 00002424 663B05[02000000]        cmp AX,[RZ+2]
  2412 0000242B 0F8473FFFFFF            jz L30
  2413                                 
  2414 00002431 66A1[02000000]          mov AX,[RW+2]
  2415 00002437 98                      cwde
  2416 00002438 890424                  mov [ESP],EAX
  2417 0000243B E8(F6FFFFFF)            call iwrite
  2418 00002440 66A3[04000000]          mov [RW+4],AX
  2419                                 
  2420 00002446 66A1[04000000]          mov AX,[RW+4]
  2421 0000244C 663B05[04000000]        cmp AX,[R0+4]
  2422 00002453 0F84B7FEFFFF            jz L29
  2423                                 
  2424 00002459 31C0                    xor EAX,EAX
  2425 0000245B 890424                  mov [ESP],EAX
  2426 0000245E E8(F6FFFFFF)            call exit
  2427 00002463 5D                      pop EBP
  2428 00002464 31C0                    xor EAX,EAX
  2429 00002466 C3                      ret
  2430                                 
  2431                                 
  2432                                 L33:
  2433                                 
  2434 00002467 66A1[00000000]          mov AX,[RV]
  2435 0000246D 98                      cwde
  2436 0000246E 05[00000000]            add EAX,list
  2437 00002473 89C3                    mov EBX,EAX
  2438 00002475 668B4302                mov AX,[EBX+2]
  2439 00002479 66A3[00000000]          mov [RY],AX
  2440 0000247F 668B03                  mov AX,[EBX]
  2441 00002482 6689C2                  mov DX,AX
  2442 00002485 6683E203                and DX,3
  2443 00002489 668915[04000000]        mov [RY+4],DX
  2444 00002490 66C1F802                sar AX,2
  2445 00002494 66A3[02000000]          mov [RY+2],AX
  2446                                 
  2447 0000249A 66A1[04000000]          mov AX,[RY+4]
  2448 000024A0 663B05[04000000]        cmp AX,[R3+4]
  2449 000024A7 0F84D0F8FFFF            jz L23
  2450                                 
  2451 000024AD 66A1[02000000]          mov AX,[RY+2]
  2452 000024B3 663B05[02000000]        cmp AX,[R0+2]
  2453 000024BA 0F84D3E5FFFF            jz L05
  2454                                 
  2455 000024C0 66A1[00000000]          mov AX,[RY]
  2456 000024C6 98                      cwde
  2457 000024C7 05[00000000]            add EAX,list
  2458 000024CC 89C3                    mov EBX,EAX
  2459 000024CE 668B4302                mov AX,[EBX+2]
  2460 000024D2 66A3[00000000]          mov [RX],AX
  2461 000024D8 668B03                  mov AX,[EBX]
  2462 000024DB 6689C2                  mov DX,AX
  2463 000024DE 6683E203                and DX,3
  2464 000024E2 668915[04000000]        mov [RX+4],DX
  2465 000024E9 66C1F802                sar AX,2
  2466 000024ED 66A3[02000000]          mov [RX+2],AX
  2467                                 
  2468 000024F3 66A1[04000000]          mov AX,[R2+4]
  2469 000024F9 66A3[04000000]          mov [RB+4],AX
  2470                                 
  2471 000024FF 66A1[00000000]          mov AX,[RF]
  2472 00002505 98                      cwde
  2473 00002506 05[00000000]            add EAX,list
  2474 0000250B 89C3                    mov EBX,EAX
  2475 0000250D 668B4302                mov AX,[EBX+2]
  2476 00002511 66A3[00000000]          mov [RW],AX
  2477 00002517 668B03                  mov AX,[EBX]
  2478 0000251A 6689C2                  mov DX,AX
  2479 0000251D 6683E203                and DX,3
  2480 00002521 668915[04000000]        mov [RW+4],DX
  2481 00002528 66C1F802                sar AX,2
  2482 0000252C 66A3[02000000]          mov [RW+2],AX
  2483                                 
  2484 00002532 66A1[00000000]          mov AX,[RF]
  2485 00002538 660305[00000000]        add AX,[R0]
  2486 0000253F 66A3[00000000]          mov [RZ],AX
  2487                                 
  2488 00002545 B8[00000000]            mov EAX,G108
  2489 0000254A 2D[00000000]            sub EAX,progr
  2490 0000254F 66A3[00000000]          mov [RB],AX
  2491 00002555 E966180000              jmp L58
  2492                                 G108:
  2493                                 
  2494 0000255A 66A1[04000000]          mov AX,[R0+4]
  2495 00002560 66A3[04000000]          mov [RB+4],AX
  2496                                 
  2497 00002566 66A1[04000000]          mov AX,[RY+4]
  2498 0000256C 66A3[04000000]          mov [RW+4],AX
  2499                                 
  2500 00002572 66A1[00000000]          mov AX,[RU]
  2501 00002578 660305[00000000]        add AX,[R0]
  2502 0000257F 66A3[00000000]          mov [RW],AX
  2503                                 
  2504 00002585 66A1[00000000]          mov AX,[RY]
  2505 0000258B 660305[00000000]        add AX,[R0]
  2506 00002592 66A3[00000000]          mov [RZ],AX
  2507                                 
  2508 00002598 66A1[00000000]          mov AX,[RV]
  2509 0000259E 660305[00000000]        add AX,[R7]
  2510 000025A5 66A3[00000000]          mov [RV],AX
  2511                                 
  2512 000025AB 66A1[00000000]          mov AX,[RV]
  2513 000025B1 98                      cwde
  2514 000025B2 05[00000000]            add EAX,list
  2515 000025B7 89C3                    mov EBX,EAX
  2516 000025B9 668B4302                mov AX,[EBX+2]
  2517 000025BD 66A3[00000000]          mov [RY],AX
  2518 000025C3 668B03                  mov AX,[EBX]
  2519 000025C6 6689C2                  mov DX,AX
  2520 000025C9 6683E203                and DX,3
  2521 000025CD 668915[04000000]        mov [RY+4],DX
  2522 000025D4 66C1F802                sar AX,2
  2523 000025D8 66A3[02000000]          mov [RY+2],AX
  2524                                 
  2525 000025DE 66A1[04000000]          mov AX,[RY+4]
  2526 000025E4 663B05[04000000]        cmp AX,[R3+4]
  2527 000025EB 0F848CF7FFFF            jz L23
  2528                                 
  2529 000025F1 66A1[00000000]          mov AX,[RY]
  2530 000025F7 660305[00000000]        add AX,[R0]
  2531 000025FE 66A3[00000000]          mov [RX],AX
  2532                                 
  2533 00002604 66A1[04000000]          mov AX,[R1+4]
  2534 0000260A 66A3[04000000]          mov [RZ+4],AX
  2535                                 
  2536 00002610 66A1[02000000]          mov AX,[RY+2]
  2537 00002616 660305[02000000]        add AX,[R0+2]
  2538 0000261D 66A3[02000000]          mov [RZ+2],AX
  2539                                 
  2540 00002623 66A1[04000000]          mov AX,[RW+4]
  2541 00002629 663B05[04000000]        cmp AX,[R1+4]
  2542 00002630 0F852B010000            jnz L35
  2543                                 
  2544 00002636 66A1[00000000]          mov AX,[RW]
  2545 0000263C 98                      cwde
  2546 0000263D 05[00000000]            add EAX,list
  2547 00002642 89C3                    mov EBX,EAX
  2548 00002644 66A1[02000000]          mov AX,[RZ+2]
  2549 0000264A 66C1E002                sal AX,2
  2550 0000264E 660B05[04000000]        or AX,[RZ+4]
  2551 00002655 668903                  mov [EBX],AX
  2552 00002658 66A1[00000000]          mov AX,[RZ]
  2553 0000265E 66894302                mov [EBX+2],AX
  2554                                 
  2555 00002662 66A1[02000000]          mov AX,[RY+2]
  2556 00002668 663B05[02000000]        cmp AX,[R0+2]
  2557 0000266F 0F841EE4FFFF            jz L05
  2558                                 
  2559                                 
  2560                                 L34:
  2561                                 
  2562 00002675 66A1[00000000]          mov AX,[RX]
  2563 0000267B 98                      cwde
  2564 0000267C 05[00000000]            add EAX,list
  2565 00002681 89C3                    mov EBX,EAX
  2566 00002683 668B4302                mov AX,[EBX+2]
  2567 00002687 66A3[00000000]          mov [RX],AX
  2568 0000268D 668B03                  mov AX,[EBX]
  2569 00002690 6689C2                  mov DX,AX
  2570 00002693 6683E203                and DX,3
  2571 00002697 668915[04000000]        mov [RX+4],DX
  2572 0000269E 66C1F802                sar AX,2
  2573 000026A2 66A3[02000000]          mov [RX+2],AX
  2574                                 
  2575 000026A8 66A1[00000000]          mov AX,[RZ]
  2576 000026AE 660305[00000000]        add AX,[R0]
  2577 000026B5 66A3[00000000]          mov [RW],AX
  2578                                 
  2579 000026BB 66A1[00000000]          mov AX,[RW]
  2580 000026C1 98                      cwde
  2581 000026C2 05[00000000]            add EAX,list
  2582 000026C7 89C3                    mov EBX,EAX
  2583 000026C9 668B4302                mov AX,[EBX+2]
  2584 000026CD 66A3[00000000]          mov [RZ],AX
  2585 000026D3 668B03                  mov AX,[EBX]
  2586 000026D6 6689C2                  mov DX,AX
  2587 000026D9 6683E203                and DX,3
  2588 000026DD 668915[04000000]        mov [RZ+4],DX
  2589 000026E4 66C1F802                sar AX,2
  2590 000026E8 66A3[02000000]          mov [RZ+2],AX
  2591                                 
  2592 000026EE 66A1[02000000]          mov AX,[RX+2]
  2593 000026F4 660305[02000000]        add AX,[R0+2]
  2594 000026FB 66A3[02000000]          mov [RZ+2],AX
  2595                                 
  2596 00002701 66A1[00000000]          mov AX,[RW]
  2597 00002707 98                      cwde
  2598 00002708 05[00000000]            add EAX,list
  2599 0000270D 89C3                    mov EBX,EAX
  2600 0000270F 66A1[02000000]          mov AX,[RZ+2]
  2601 00002715 66C1E002                sal AX,2
  2602 00002719 660B05[04000000]        or AX,[RZ+4]
  2603 00002720 668903                  mov [EBX],AX
  2604 00002723 66A1[00000000]          mov AX,[RZ]
  2605 00002729 66894302                mov [EBX+2],AX
  2606                                 
  2607 0000272D 66A1[02000000]          mov AX,[RY+2]
  2608 00002733 662B05[02000000]        sub AX,[R1+2]
  2609 0000273A 66A3[02000000]          mov [RY+2],AX
  2610                                 
  2611 00002740 66A1[00000000]          mov AX,[RZ]
  2612 00002746 663B05[00000000]        cmp AX,[R0]
  2613 0000274D 7416                    jz L35
  2614                                 
  2615 0000274F 66A1[02000000]          mov AX,[RY+2]
  2616 00002755 663B05[02000000]        cmp AX,[R0+2]
  2617 0000275C 0F850DFFFFFF            jnz L34
  2618                                 
  2619 00002762 E92DE3FFFF              jmp L05
  2620                                 
  2621                                 
  2622                                 L35:
  2623                                 
  2624 00002767 66A1[00000000]          mov AX,[R8]
  2625 0000276D 660305[00000000]        add AX,[R0]
  2626 00002774 66A3[00000000]          mov [RZ],AX
  2627                                 
  2628 0000277A 66A1[00000000]          mov AX,[RW]
  2629 00002780 98                      cwde
  2630 00002781 05[00000000]            add EAX,list
  2631 00002786 89C3                    mov EBX,EAX
  2632 00002788 66A1[02000000]          mov AX,[RZ+2]
  2633 0000278E 66C1E002                sal AX,2
  2634 00002792 660B05[04000000]        or AX,[RZ+4]
  2635 00002799 668903                  mov [EBX],AX
  2636 0000279C 66A1[00000000]          mov AX,[RZ]
  2637 000027A2 66894302                mov [EBX+2],AX
  2638                                 
  2639 000027A6 66A1[00000000]          mov AX,[R8]
  2640 000027AC 660305[00000000]        add AX,[R7]
  2641 000027B3 66A3[00000000]          mov [R8],AX
  2642                                 
  2643 000027B9 66A1[00000000]          mov AX,[R8]
  2644 000027BF 663B05[00000000]        cmp AX,[R9]
  2645 000027C6 0F8D542A0000            jge L97
  2646                                 
  2647 000027CC 66A1[00000000]          mov AX,[RZ]
  2648 000027D2 660305[00000000]        add AX,[R0]
  2649 000027D9 66A3[00000000]          mov [RW],AX
  2650                                 
  2651 000027DF 66A1[00000000]          mov AX,[RX]
  2652 000027E5 98                      cwde
  2653 000027E6 05[00000000]            add EAX,list
  2654 000027EB 89C3                    mov EBX,EAX
  2655 000027ED 668B4302                mov AX,[EBX+2]
  2656 000027F1 66A3[00000000]          mov [RZ],AX
  2657 000027F7 668B03                  mov AX,[EBX]
  2658 000027FA 6689C2                  mov DX,AX
  2659 000027FD 6683E203                and DX,3
  2660 00002801 668915[04000000]        mov [RZ+4],DX
  2661 00002808 66C1F802                sar AX,2
  2662 0000280C 66A3[02000000]          mov [RZ+2],AX
  2663                                 
  2664 00002812 66A1[00000000]          mov AX,[RZ]
  2665 00002818 660305[00000000]        add AX,[R0]
  2666 0000281F 66A3[00000000]          mov [RX],AX
  2667                                 
  2668 00002825 66A1[02000000]          mov AX,[RY+2]
  2669 0000282B 662B05[02000000]        sub AX,[R1+2]
  2670 00002832 66A3[02000000]          mov [RY+2],AX
  2671                                 
  2672 00002838 66A1[02000000]          mov AX,[RY+2]
  2673 0000283E 663B05[02000000]        cmp AX,[RL+2]
  2674 00002845 0F8516FFFFFF            jnz L35
  2675                                 
  2676 0000284B 66A1[00000000]          mov AX,[RW]
  2677 00002851 98                      cwde
  2678 00002852 05[00000000]            add EAX,list
  2679 00002857 89C3                    mov EBX,EAX
  2680 00002859 66A1[02000000]          mov AX,[R0+2]
  2681 0000285F 66C1E002                sal AX,2
  2682 00002863 660B05[04000000]        or AX,[R0+4]
  2683 0000286A 668903                  mov [EBX],AX
  2684 0000286D 66A1[00000000]          mov AX,[R0]
  2685 00002873 66894302                mov [EBX+2],AX
  2686                                 
  2687 00002877 E918E2FFFF              jmp L05
  2688                                 
  2689                                 
  2690                                 L36:
  2691                                 
  2692 0000287C 66A1[00000000]          mov AX,[RK]
  2693 00002882 98                      cwde
  2694 00002883 05[00000000]            add EAX,list
  2695 00002888 89C3                    mov EBX,EAX
  2696 0000288A 668B4302                mov AX,[EBX+2]
  2697 0000288E 66A3[00000000]          mov [RI],AX
  2698 00002894 668B03                  mov AX,[EBX]
  2699 00002897 6689C2                  mov DX,AX
  2700 0000289A 6683E203                and DX,3
  2701 0000289E 668915[04000000]        mov [RI+4],DX
  2702 000028A5 66C1F802                sar AX,2
  2703 000028A9 66A3[02000000]          mov [RI+2],AX
  2704                                 
  2705 000028AF 66A1[00000000]          mov AX,[RK]
  2706 000028B5 660305[00000000]        add AX,[R7]
  2707 000028BC 66A3[00000000]          mov [RK],AX
  2708                                 
  2709 000028C2 66A1[00000000]          mov AX,[RV]
  2710 000028C8 98                      cwde
  2711 000028C9 05[00000000]            add EAX,list
  2712 000028CE 89C3                    mov EBX,EAX
  2713 000028D0 668B4302                mov AX,[EBX+2]
  2714 000028D4 66A3[00000000]          mov [RY],AX
  2715 000028DA 668B03                  mov AX,[EBX]
  2716 000028DD 6689C2                  mov DX,AX
  2717 000028E0 6683E203                and DX,3
  2718 000028E4 668915[04000000]        mov [RY+4],DX
  2719 000028EB 66C1F802                sar AX,2
  2720 000028EF 66A3[02000000]          mov [RY+2],AX
  2721                                 
  2722 000028F5 66A1[00000000]          mov AX,[RV]
  2723 000028FB 660305[00000000]        add AX,[R7]
  2724 00002902 66A3[00000000]          mov [RV],AX
  2725                                 
  2726 00002908 66A1[00000000]          mov AX,[RV]
  2727 0000290E 98                      cwde
  2728 0000290F 05[00000000]            add EAX,list
  2729 00002914 89C3                    mov EBX,EAX
  2730 00002916 668B4302                mov AX,[EBX+2]
  2731 0000291A 66A3[00000000]          mov [RZ],AX
  2732 00002920 668B03                  mov AX,[EBX]
  2733 00002923 6689C2                  mov DX,AX
  2734 00002926 6683E203                and DX,3
  2735 0000292A 668915[04000000]        mov [RZ+4],DX
  2736 00002931 66C1F802                sar AX,2
  2737 00002935 66A3[02000000]          mov [RZ+2],AX
  2738                                 
  2739 0000293B 66A1[04000000]          mov AX,[RY+4]
  2740 00002941 663B05[04000000]        cmp AX,[R3+4]
  2741 00002948 0F842FF4FFFF            jz L23
  2742                                 
  2743 0000294E 66A1[04000000]          mov AX,[RZ+4]
  2744 00002954 663B05[04000000]        cmp AX,[R3+4]
  2745 0000295B 0F841CF4FFFF            jz L23
  2746                                 
  2747 00002961 66A1[00000000]          mov AX,[RV]
  2748 00002967 660305[00000000]        add AX,[R7]
  2749 0000296E 66A3[00000000]          mov [RV],AX
  2750                                 
  2751 00002974 66A1[02000000]          mov AX,[RY+2]
  2752 0000297A 663B05[02000000]        cmp AX,[RZ+2]
  2753 00002981 0F857C020000            jnz L41
  2754                                 
  2755 00002987 66A1[02000000]          mov AX,[RY+2]
  2756 0000298D 663B05[02000000]        cmp AX,[R0+2]
  2757 00002994 0F84AC000000            jz L38
  2758                                 
  2759 0000299A 66A1[00000000]          mov AX,[RZ]
  2760 000029A0 660305[00000000]        add AX,[R0]
  2761 000029A7 66A3[00000000]          mov [RX],AX
  2762                                 
  2763                                 
  2764                                 L37:
  2765                                 
  2766 000029AD 66A1[00000000]          mov AX,[RX]
  2767 000029B3 98                      cwde
  2768 000029B4 05[00000000]            add EAX,list
  2769 000029B9 89C3                    mov EBX,EAX
  2770 000029BB 668B4302                mov AX,[EBX+2]
  2771 000029BF 66A3[00000000]          mov [RX],AX
  2772 000029C5 668B03                  mov AX,[EBX]
  2773 000029C8 6689C2                  mov DX,AX
  2774 000029CB 6683E203                and DX,3
  2775 000029CF 668915[04000000]        mov [RX+4],DX
  2776 000029D6 66C1F802                sar AX,2
  2777 000029DA 66A3[02000000]          mov [RX+2],AX
  2778                                 
  2779 000029E0 66A1[00000000]          mov AX,[RY]
  2780 000029E6 98                      cwde
  2781 000029E7 05[00000000]            add EAX,list
  2782 000029EC 89C3                    mov EBX,EAX
  2783 000029EE 668B4302                mov AX,[EBX+2]
  2784 000029F2 66A3[00000000]          mov [RY],AX
  2785 000029F8 668B03                  mov AX,[EBX]
  2786 000029FB 6689C2                  mov DX,AX
  2787 000029FE 6683E203                and DX,3
  2788 00002A02 668915[04000000]        mov [RY+4],DX
  2789 00002A09 66C1F802                sar AX,2
  2790 00002A0D 66A3[02000000]          mov [RY+2],AX
  2791                                 
  2792 00002A13 66A1[02000000]          mov AX,[RX+2]
  2793 00002A19 663B05[02000000]        cmp AX,[RY+2]
  2794 00002A20 0F85DD010000            jnz L41
  2795                                 
  2796 00002A26 66A1[02000000]          mov AX,[RZ+2]
  2797 00002A2C 662B05[02000000]        sub AX,[R1+2]
  2798 00002A33 66A3[02000000]          mov [RZ+2],AX
  2799                                 
  2800 00002A39 66A1[02000000]          mov AX,[RZ+2]
  2801 00002A3F 663B05[02000000]        cmp AX,[R0+2]
  2802 00002A46 0F855BFFFFFF            jnz L37
  2803                                 
  2804                                 
  2805                                 L38:
  2806                                 
  2807 00002A4C 66A1[02000000]          mov AX,[RI+2]
  2808 00002A52 663B05[02000000]        cmp AX,[RE+2]
  2809 00002A59 0F8534E0FFFF            jnz L05
  2810                                 
  2811 00002A5F E9B3010000              jmp L42
  2812                                 
  2813                                 
  2814                                 L39:
  2815                                 
  2816 00002A64 66A1[00000000]          mov AX,[RK]
  2817 00002A6A 98                      cwde
  2818 00002A6B 05[00000000]            add EAX,list
  2819 00002A70 89C3                    mov EBX,EAX
  2820 00002A72 668B4302                mov AX,[EBX+2]
  2821 00002A76 66A3[00000000]          mov [RI],AX
  2822 00002A7C 668B03                  mov AX,[EBX]
  2823 00002A7F 6689C2                  mov DX,AX
  2824 00002A82 6683E203                and DX,3
  2825 00002A86 668915[04000000]        mov [RI+4],DX
  2826 00002A8D 66C1F802                sar AX,2
  2827 00002A91 66A3[02000000]          mov [RI+2],AX
  2828                                 
  2829 00002A97 66A1[00000000]          mov AX,[RK]
  2830 00002A9D 660305[00000000]        add AX,[R7]
  2831 00002AA4 66A3[00000000]          mov [RK],AX
  2832                                 
  2833 00002AAA 66A1[00000000]          mov AX,[RV]
  2834 00002AB0 98                      cwde
  2835 00002AB1 05[00000000]            add EAX,list
  2836 00002AB6 89C3                    mov EBX,EAX
  2837 00002AB8 668B4302                mov AX,[EBX+2]
  2838 00002ABC 66A3[00000000]          mov [RY],AX
  2839 00002AC2 668B03                  mov AX,[EBX]
  2840 00002AC5 6689C2                  mov DX,AX
  2841 00002AC8 6683E203                and DX,3
  2842 00002ACC 668915[04000000]        mov [RY+4],DX
  2843 00002AD3 66C1F802                sar AX,2
  2844 00002AD7 66A3[02000000]          mov [RY+2],AX
  2845                                 
  2846 00002ADD 66A1[04000000]          mov AX,[RY+4]
  2847 00002AE3 663B05[04000000]        cmp AX,[R3+4]
  2848 00002AEA 0F848DF2FFFF            jz L23
  2849                                 
  2850 00002AF0 B8[00000000]            mov EAX,G109
  2851 00002AF5 2D[00000000]            sub EAX,progr
  2852 00002AFA 66A3[00000000]          mov [RP],AX
  2853 00002B00 E9451C0000              jmp L74
  2854                                 G109:
  2855                                 
  2856 00002B05 66A1[00000000]          mov AX,[RN]
  2857 00002B0B 660305[00000000]        add AX,[R0]
  2858 00002B12 66A3[00000000]          mov [RI],AX
  2859                                 
  2860 00002B18 66A1[00000000]          mov AX,[RJ]
  2861 00002B1E 660305[00000000]        add AX,[R4]
  2862 00002B25 66A3[00000000]          mov [RV],AX
  2863                                 
  2864 00002B2B 66A1[00000000]          mov AX,[RV]
  2865 00002B31 98                      cwde
  2866 00002B32 05[00000000]            add EAX,list
  2867 00002B37 89C3                    mov EBX,EAX
  2868 00002B39 668B4302                mov AX,[EBX+2]
  2869 00002B3D 66A3[00000000]          mov [RY],AX
  2870 00002B43 668B03                  mov AX,[EBX]
  2871 00002B46 6689C2                  mov DX,AX
  2872 00002B49 6683E203                and DX,3
  2873 00002B4D 668915[04000000]        mov [RY+4],DX
  2874 00002B54 66C1F802                sar AX,2
  2875 00002B58 66A3[02000000]          mov [RY+2],AX
  2876                                 
  2877 00002B5E 66A1[04000000]          mov AX,[RY+4]
  2878 00002B64 663B05[04000000]        cmp AX,[R3+4]
  2879 00002B6B 0F840CF2FFFF            jz L23
  2880                                 
  2881 00002B71 B8[00000000]            mov EAX,G110
  2882 00002B76 2D[00000000]            sub EAX,progr
  2883 00002B7B 66A3[00000000]          mov [RP],AX
  2884 00002B81 E9C41B0000              jmp L74
  2885                                 G110:
  2886                                 
  2887 00002B86 66A1[00000000]          mov AX,[RJ]
  2888 00002B8C 660305[00000000]        add AX,[R4]
  2889 00002B93 66A3[00000000]          mov [RV],AX
  2890                                 
  2891 00002B99 66A1[00000000]          mov AX,[RV]
  2892 00002B9F 660305[00000000]        add AX,[R7]
  2893 00002BA6 66A3[00000000]          mov [RV],AX
  2894                                 
  2895 00002BAC 66A1[00000000]          mov AX,[RN]
  2896 00002BB2 662B05[00000000]        sub AX,[RI]
  2897 00002BB9 66A3[00000000]          mov [RN],AX
  2898                                 
  2899 00002BBF 66A1[00000000]          mov AX,[RN]
  2900 00002BC5 663B05[00000000]        cmp AX,[R0]
  2901 00002BCC 0F8474FEFFFF            jz L38
  2902                                 
  2903 00002BD2 66A1[00000000]          mov AX,[RN]
  2904 00002BD8 663B05[00000000]        cmp AX,[R0]
  2905 00002BDF 7D13                    jge L40
  2906                                 
  2907 00002BE1 66A1[02000000]          mov AX,[RI+2]
  2908 00002BE7 663B05[02000000]        cmp AX,[RO+2]
  2909 00002BEE 0F849FDEFFFF            jz L05
  2910                                 
  2911 00002BF4 EB11                    jmp L41
  2912                                 
  2913                                 
  2914                                 L40:
  2915                                 
  2916 00002BF6 66A1[02000000]          mov AX,[RI+2]
  2917 00002BFC 663B05[02000000]        cmp AX,[RN+2]
  2918 00002C03 0F848ADEFFFF            jz L05
  2919                                 
  2920                                 
  2921                                 L41:
  2922                                 
  2923 00002C09 66A1[02000000]          mov AX,[RI+2]
  2924 00002C0F 663B05[02000000]        cmp AX,[RE+2]
  2925 00002C16 0F8477DEFFFF            jz L05
  2926                                 
  2927                                 
  2928                                 L42:
  2929                                 
  2930 00002C1C 66A1[00000000]          mov AX,[RV]
  2931 00002C22 98                      cwde
  2932 00002C23 05[00000000]            add EAX,list
  2933 00002C28 89C3                    mov EBX,EAX
  2934 00002C2A 668B4302                mov AX,[EBX+2]
  2935 00002C2E 66A3[00000000]          mov [RY],AX
  2936 00002C34 668B03                  mov AX,[EBX]
  2937 00002C37 6689C2                  mov DX,AX
  2938 00002C3A 6683E203                and DX,3
  2939 00002C3E 668915[04000000]        mov [RY+4],DX
  2940 00002C45 66C1F802                sar AX,2
  2941 00002C49 66A3[02000000]          mov [RY+2],AX
  2942                                 
  2943 00002C4F 66A1[04000000]          mov AX,[RY+4]
  2944 00002C55 663B05[04000000]        cmp AX,[R3+4]
  2945 00002C5C 0F841BF1FFFF            jz L23
  2946                                 
  2947 00002C62 66A1[02000000]          mov AX,[RY+2]
  2948 00002C68 663B05[02000000]        cmp AX,[R0+2]
  2949 00002C6F 0F841EDEFFFF            jz L05
  2950                                 
  2951 00002C75 B8[00000000]            mov EAX,G111
  2952 00002C7A 2D[00000000]            sub EAX,progr
  2953 00002C7F 66A3[00000000]          mov [RP],AX
  2954 00002C85 E9C01A0000              jmp L74
  2955                                 G111:
  2956                                 
  2957 00002C8A 66A1[00000000]          mov AX,[RN]
  2958 00002C90 660305[00000000]        add AX,[R0]
  2959 00002C97 66A3[00000000]          mov [RM],AX
  2960                                 
  2961 00002C9D E9F2DDFFFF              jmp L05
  2962                                 
  2963                                 
  2964                                 L43:
  2965                                 
  2966 00002CA2 66A1[00000000]          mov AX,[RC]
  2967 00002CA8 662B05[00000000]        sub AX,[R9]
  2968 00002CAF 66A3[00000000]          mov [RY],AX
  2969                                 
  2970 00002CB5 66A1[00000000]          mov AX,[RY]
  2971 00002CBB 6699                    cwd
  2972 00002CBD 66F73D[00000000]        idiv word [R7]
  2973 00002CC4 66A3[00000000]          mov [RY],AX
  2974                                 
  2975 00002CCA 66A1[00000000]          mov AX,[RY]
  2976 00002CD0 66A3[02000000]          mov [RY+2],AX
  2977                                 
  2978 00002CD6 66A1[02000000]          mov AX,[RY+2]
  2979 00002CDC 663B05[02000000]        cmp AX,[R0+2]
  2980 00002CE3 0F84F1DFFFFF            jz L07
  2981                                 
  2982 00002CE9 66A1[00000000]          mov AX,[RC]
  2983 00002CEF 660305[00000000]        add AX,[R0]
  2984 00002CF6 66A3[00000000]          mov [RY],AX
  2985                                 
  2986 00002CFC B8[00000000]            mov EAX,G112
  2987 00002D01 2D[00000000]            sub EAX,progr
  2988 00002D06 66A3[00000000]          mov [RP],AX
  2989 00002D0C E9391A0000              jmp L74
  2990                                 G112:
  2991                                 
  2992 00002D11 66A1[04000000]          mov AX,[R1+4]
  2993 00002D17 66A3[04000000]          mov [RY+4],AX
  2994                                 
  2995 00002D1D 66A1[02000000]          mov AX,[R0+2]
  2996 00002D23 660305[02000000]        add AX,[R0+2]
  2997 00002D2A 66A3[02000000]          mov [RY+2],AX
  2998                                 
  2999 00002D30 66A1[00000000]          mov AX,[RN]
  3000 00002D36 660305[00000000]        add AX,[R1]
  3001 00002D3D 66A3[00000000]          mov [RY],AX
  3002                                 
  3003 00002D43 66A1[00000000]          mov AX,[RC]
  3004 00002D49 98                      cwde
  3005 00002D4A 05[00000000]            add EAX,list
  3006 00002D4F 89C3                    mov EBX,EAX
  3007 00002D51 66A1[02000000]          mov AX,[RR+2]
  3008 00002D57 66C1E002                sal AX,2
  3009 00002D5B 660B05[04000000]        or AX,[RR+4]
  3010 00002D62 668903                  mov [EBX],AX
  3011 00002D65 66A1[00000000]          mov AX,[RR]
  3012 00002D6B 66894302                mov [EBX+2],AX
  3013                                 
  3014 00002D6F 66A1[00000000]          mov AX,[RR]
  3015 00002D75 660305[00000000]        add AX,[R0]
  3016 00002D7C 66A3[00000000]          mov [RZ],AX
  3017                                 
  3018 00002D82 66A1[00000000]          mov AX,[RC]
  3019 00002D88 660305[00000000]        add AX,[R0]
  3020 00002D8F 66A3[00000000]          mov [RR],AX
  3021                                 
  3022 00002D95 66A1[00000000]          mov AX,[RC]
  3023 00002D9B 662B05[00000000]        sub AX,[R4]
  3024 00002DA2 66A3[00000000]          mov [RC],AX
  3025                                 
  3026 00002DA8 66A1[00000000]          mov AX,[RC]
  3027 00002DAE 98                      cwde
  3028 00002DAF 05[00000000]            add EAX,list
  3029 00002DB4 89C3                    mov EBX,EAX
  3030 00002DB6 66A1[02000000]          mov AX,[RK+2]
  3031 00002DBC 66C1E002                sal AX,2
  3032 00002DC0 660B05[04000000]        or AX,[RK+4]
  3033 00002DC7 668903                  mov [EBX],AX
  3034 00002DCA 66A1[00000000]          mov AX,[RK]
  3035 00002DD0 66894302                mov [EBX+2],AX
  3036                                 
  3037                                 
  3038                                 L44:
  3039                                 
  3040 00002DD4 66A1[00000000]          mov AX,[RR]
  3041 00002DDA 660305[00000000]        add AX,[R0]
  3042 00002DE1 66A3[00000000]          mov [RC],AX
  3043                                 
  3044 00002DE7 66A1[00000000]          mov AX,[RZ]
  3045 00002DED 660305[00000000]        add AX,[R0]
  3046 00002DF4 66A3[00000000]          mov [RR],AX
  3047                                 
  3048 00002DFA 66A1[00000000]          mov AX,[RY]
  3049 00002E00 662B05[00000000]        sub AX,[R1]
  3050 00002E07 66A3[00000000]          mov [RY],AX
  3051                                 
  3052 00002E0D 66A1[00000000]          mov AX,[R0]
  3053 00002E13 663B05[00000000]        cmp AX,[RY]
  3054 00002E1A 0F8D73DCFFFF            jge L05
  3055                                 
  3056 00002E20 66A1[00000000]          mov AX,[RC]
  3057 00002E26 660305[00000000]        add AX,[R0]
  3058 00002E2D 66A3[00000000]          mov [RR],AX
  3059                                 
  3060 00002E33 66A1[00000000]          mov AX,[RC]
  3061 00002E39 662B05[00000000]        sub AX,[R7]
  3062 00002E40 66A3[00000000]          mov [RC],AX
  3063                                 
  3064 00002E46 66A1[00000000]          mov AX,[RC]
  3065 00002E4C 98                      cwde
  3066 00002E4D 05[00000000]            add EAX,list
  3067 00002E52 89C3                    mov EBX,EAX
  3068 00002E54 66A1[02000000]          mov AX,[RY+2]
  3069 00002E5A 66C1E002                sal AX,2
  3070 00002E5E 660B05[04000000]        or AX,[RY+4]
  3071 00002E65 668903                  mov [EBX],AX
  3072 00002E68 66A1[00000000]          mov AX,[RY]
  3073 00002E6E 66894302                mov [EBX+2],AX
  3074                                 
  3075 00002E72 66A1[00000000]          mov AX,[RC]
  3076 00002E78 662B05[00000000]        sub AX,[R7]
  3077 00002E7F 66A3[00000000]          mov [RC],AX
  3078                                 
  3079 00002E85 66A1[00000000]          mov AX,[RC]
  3080 00002E8B 98                      cwde
  3081 00002E8C 05[00000000]            add EAX,list
  3082 00002E91 89C3                    mov EBX,EAX
  3083 00002E93 668B4302                mov AX,[EBX+2]
  3084 00002E97 66A3[00000000]          mov [RK],AX
  3085 00002E9D 668B03                  mov AX,[EBX]
  3086 00002EA0 6689C2                  mov DX,AX
  3087 00002EA3 6683E203                and DX,3
  3088 00002EA7 668915[04000000]        mov [RK+4],DX
  3089 00002EAE 66C1F802                sar AX,2
  3090 00002EB2 66A3[02000000]          mov [RK+2],AX
  3091                                 
  3092 00002EB8 66A1[00000000]          mov AX,[RC]
  3093 00002EBE 662B05[00000000]        sub AX,[R7]
  3094 00002EC5 66A3[00000000]          mov [RC],AX
  3095                                 
  3096 00002ECB E9C4DBFFFF              jmp L05
  3097                                 
  3098                                 
  3099                                 L45:
  3100                                 
  3101 00002ED0 66A1[00000000]          mov AX,[R9]
  3102 00002ED6 98                      cwde
  3103 00002ED7 05[00000000]            add EAX,list
  3104 00002EDC 89C3                    mov EBX,EAX
  3105 00002EDE 66A1[02000000]          mov AX,[RL+2]
  3106 00002EE4 66C1E002                sal AX,2
  3107 00002EE8 660B05[04000000]        or AX,[RL+4]
  3108 00002EEF 668903                  mov [EBX],AX
  3109 00002EF2 66A1[00000000]          mov AX,[RL]
  3110 00002EF8 66894302                mov [EBX+2],AX
  3111                                 
  3112 00002EFC 66A1[00000000]          mov AX,[RC]
  3113 00002F02 662B05[00000000]        sub AX,[R9]
  3114 00002F09 66A3[00000000]          mov [RW],AX
  3115                                 
  3116 00002F0F 66A1[00000000]          mov AX,[RW]
  3117 00002F15 6699                    cwd
  3118 00002F17 66F73D[00000000]        idiv word [R7]
  3119 00002F1E 66A3[00000000]          mov [RW],AX
  3120                                 
  3121 00002F24 66A1[04000000]          mov AX,[R0+4]
  3122 00002F2A 66A3[04000000]          mov [RW+4],AX
  3123                                 
  3124 00002F30 66A1[00000000]          mov AX,[RW]
  3125 00002F36 66A3[02000000]          mov [RW+2],AX
  3126                                 
  3127 00002F3C 66A1[00000000]          mov AX,[RC]
  3128 00002F42 660305[00000000]        add AX,[R0]
  3129 00002F49 66A3[00000000]          mov [RW],AX
  3130                                 
  3131 00002F4F 66A1[00000000]          mov AX,[R9]
  3132 00002F55 662B05[00000000]        sub AX,[R7]
  3133 00002F5C 66A3[00000000]          mov [R9],AX
  3134                                 
  3135 00002F62 66A1[04000000]          mov AX,[R2+4]
  3136 00002F68 66A3[04000000]          mov [RB+4],AX
  3137                                 
  3138 00002F6E 66A1[00000000]          mov AX,[R0]
  3139 00002F74 660305[00000000]        add AX,[R0]
  3140 00002F7B 66A3[00000000]          mov [RB],AX
  3141                                 
  3142 00002F81 66A1[04000000]          mov AX,[R0+4]
  3143 00002F87 66A3[04000000]          mov [RU+4],AX
  3144                                 
  3145 00002F8D 66A1[02000000]          mov AX,[RR+2]
  3146 00002F93 660305[02000000]        add AX,[R0+2]
  3147 00002F9A 66A3[02000000]          mov [RU+2],AX
  3148                                 
  3149 00002FA0 66A1[00000000]          mov AX,[R7]
  3150 00002FA6 660305[00000000]        add AX,[R0]
  3151 00002FAD 66A3[00000000]          mov [RU],AX
  3152                                 
  3153 00002FB3 66A1[04000000]          mov AX,[R1+4]
  3154 00002FB9 66A3[04000000]          mov [RZ+4],AX
  3155                                 
  3156 00002FBF 66A1[02000000]          mov AX,[R0+2]
  3157 00002FC5 660305[02000000]        add AX,[R0+2]
  3158 00002FCC 66A3[02000000]          mov [RZ+2],AX
  3159                                 
  3160 00002FD2 66A1[00000000]          mov AX,[R0]
  3161 00002FD8 660305[00000000]        add AX,[R0]
  3162 00002FDF 66A3[00000000]          mov [RZ],AX
  3163                                 
  3164 00002FE5 66A1[00000000]          mov AX,[R9]
  3165 00002FEB 662B05[00000000]        sub AX,[R7]
  3166 00002FF2 66A3[00000000]          mov [RX],AX
  3167                                 
  3168                                 
  3169                                 L46:
  3170                                 
  3171 00002FF8 66A1[02000000]          mov AX,[RZ+2]
  3172 00002FFE 660305[02000000]        add AX,[R1+2]
  3173 00003005 66A3[02000000]          mov [RZ+2],AX
  3174                                 
  3175 0000300B 66A1[00000000]          mov AX,[R9]
  3176 00003011 98                      cwde
  3177 00003012 05[00000000]            add EAX,list
  3178 00003017 89C3                    mov EBX,EAX
  3179 00003019 66A1[02000000]          mov AX,[RZ+2]
  3180 0000301F 66C1E002                sal AX,2
  3181 00003023 660B05[04000000]        or AX,[RZ+4]
  3182 0000302A 668903                  mov [EBX],AX
  3183 0000302D 66A1[00000000]          mov AX,[RZ]
  3184 00003033 66894302                mov [EBX+2],AX
  3185                                 
  3186 00003037 66A1[00000000]          mov AX,[R9]
  3187 0000303D 662B05[00000000]        sub AX,[R7]
  3188 00003044 66A3[00000000]          mov [R9],AX
  3189                                 
  3190 0000304A 66A1[00000000]          mov AX,[R9]
  3191 00003050 98                      cwde
  3192 00003051 05[00000000]            add EAX,list
  3193 00003056 89C3                    mov EBX,EAX
  3194 00003058 66A1[02000000]          mov AX,[RU+2]
  3195 0000305E 66C1E002                sal AX,2
  3196 00003062 660B05[04000000]        or AX,[RU+4]
  3197 00003069 668903                  mov [EBX],AX
  3198 0000306C 66A1[00000000]          mov AX,[RU]
  3199 00003072 66894302                mov [EBX+2],AX
  3200                                 
  3201 00003076 66A1[00000000]          mov AX,[R9]
  3202 0000307C 662B05[00000000]        sub AX,[R7]
  3203 00003083 66A3[00000000]          mov [R9],AX
  3204                                 
  3205 00003089 66A1[00000000]          mov AX,[R9]
  3206 0000308F 98                      cwde
  3207 00003090 05[00000000]            add EAX,list
  3208 00003095 89C3                    mov EBX,EAX
  3209 00003097 66A1[02000000]          mov AX,[RB+2]
  3210 0000309D 66C1E002                sal AX,2
  3211 000030A1 660B05[04000000]        or AX,[RB+4]
  3212 000030A8 668903                  mov [EBX],AX
  3213 000030AB 66A1[00000000]          mov AX,[RB]
  3214 000030B1 66894302                mov [EBX+2],AX
  3215                                 
  3216 000030B5 66A1[00000000]          mov AX,[R9]
  3217 000030BB 662B05[00000000]        sub AX,[R7]
  3218 000030C2 66A3[00000000]          mov [R9],AX
  3219                                 
  3220 000030C8 66A1[00000000]          mov AX,[RK]
  3221 000030CE 660305[00000000]        add AX,[R7]
  3222 000030D5 66A3[00000000]          mov [RK],AX
  3223                                 
  3224 000030DB 66A1[00000000]          mov AX,[RK]
  3225 000030E1 98                      cwde
  3226 000030E2 05[00000000]            add EAX,list
  3227 000030E7 89C3                    mov EBX,EAX
  3228 000030E9 668B4302                mov AX,[EBX+2]
  3229 000030ED 66A3[00000000]          mov [RI],AX
  3230 000030F3 668B03                  mov AX,[EBX]
  3231 000030F6 6689C2                  mov DX,AX
  3232 000030F9 6683E203                and DX,3
  3233 000030FD 668915[04000000]        mov [RI+4],DX
  3234 00003104 66C1F802                sar AX,2
  3235 00003108 66A3[02000000]          mov [RI+2],AX
  3236                                 
  3237 0000310E 66A1[00000000]          mov AX,[RX]
  3238 00003114 662B05[00000000]        sub AX,[R9]
  3239 0000311B 66A3[00000000]          mov [RI],AX
  3240                                 
  3241 00003121 66A1[00000000]          mov AX,[R9]
  3242 00003127 98                      cwde
  3243 00003128 05[00000000]            add EAX,list
  3244 0000312D 89C3                    mov EBX,EAX
  3245 0000312F 66A1[02000000]          mov AX,[RI+2]
  3246 00003135 66C1E002                sal AX,2
  3247 00003139 660B05[04000000]        or AX,[RI+4]
  3248 00003140 668903                  mov [EBX],AX
  3249 00003143 66A1[00000000]          mov AX,[RI]
  3250 00003149 66894302                mov [EBX+2],AX
  3251                                 
  3252 0000314D 66A1[00000000]          mov AX,[R9]
  3253 00003153 660305[00000000]        add AX,[R0]
  3254 0000315A 66A3[00000000]          mov [RX],AX
  3255                                 
  3256 00003160 66A1[00000000]          mov AX,[R9]
  3257 00003166 662B05[00000000]        sub AX,[R7]
  3258 0000316D 66A3[00000000]          mov [R9],AX
  3259                                 
  3260 00003173 66A1[00000000]          mov AX,[R8]
  3261 00003179 663B05[00000000]        cmp AX,[R9]
  3262 00003180 0F8D9A200000            jge L97
  3263                                 
  3264 00003186 66A1[04000000]          mov AX,[RI+4]
  3265 0000318C 663B05[04000000]        cmp AX,[R1+4]
  3266 00003193 0F8559FEFFFF            jnz L46
  3267                                 
  3268 00003199 66A1[00000000]          mov AX,[R9]
  3269 0000319F 98                      cwde
  3270 000031A0 05[00000000]            add EAX,list
  3271 000031A5 89C3                    mov EBX,EAX
  3272 000031A7 66A1[02000000]          mov AX,[RB+2]
  3273 000031AD 66C1E002                sal AX,2
  3274 000031B1 660B05[04000000]        or AX,[RB+4]
  3275 000031B8 668903                  mov [EBX],AX
  3276 000031BB 66A1[00000000]          mov AX,[RB]
  3277 000031C1 66894302                mov [EBX+2],AX
  3278                                 
  3279 000031C5 66A1[04000000]          mov AX,[R0+4]
  3280 000031CB 66A3[04000000]          mov [RB+4],AX
  3281                                 
  3282 000031D1 66A1[00000000]          mov AX,[R9]
  3283 000031D7 660305[00000000]        add AX,[R0]
  3284 000031DE 66A3[00000000]          mov [RZ],AX
  3285                                 
  3286 000031E4 66A1[00000000]          mov AX,[R9]
  3287 000031EA 662B05[00000000]        sub AX,[R7]
  3288 000031F1 66A3[00000000]          mov [R9],AX
  3289                                 
  3290 000031F7 66A1[02000000]          mov AX,[RM+2]
  3291 000031FD 660305[02000000]        add AX,[R0+2]
  3292 00003204 66A3[02000000]          mov [RU+2],AX
  3293                                 
  3294 0000320A 66A1[00000000]          mov AX,[R9]
  3295 00003210 98                      cwde
  3296 00003211 05[00000000]            add EAX,list
  3297 00003216 89C3                    mov EBX,EAX
  3298 00003218 66A1[02000000]          mov AX,[RU+2]
  3299 0000321E 66C1E002                sal AX,2
  3300 00003222 660B05[04000000]        or AX,[RU+4]
  3301 00003229 668903                  mov [EBX],AX
  3302 0000322C 66A1[00000000]          mov AX,[RU]
  3303 00003232 66894302                mov [EBX+2],AX
  3304                                 
  3305 00003236 66A1[00000000]          mov AX,[R9]
  3306 0000323C 662B05[00000000]        sub AX,[R7]
  3307 00003243 66A3[00000000]          mov [R9],AX
  3308                                 
  3309 00003249 66A1[00000000]          mov AX,[R9]
  3310 0000324F 98                      cwde
  3311 00003250 05[00000000]            add EAX,list
  3312 00003255 89C3                    mov EBX,EAX
  3313 00003257 66A1[02000000]          mov AX,[RR+2]
  3314 0000325D 66C1E002                sal AX,2
  3315 00003261 660B05[04000000]        or AX,[RR+4]
  3316 00003268 668903                  mov [EBX],AX
  3317 0000326B 66A1[00000000]          mov AX,[RR]
  3318 00003271 66894302                mov [EBX+2],AX
  3319                                 
  3320 00003275 66A1[00000000]          mov AX,[R9]
  3321 0000327B 662B05[00000000]        sub AX,[R7]
  3322 00003282 66A3[00000000]          mov [R9],AX
  3323                                 
  3324 00003288 66A1[00000000]          mov AX,[R9]
  3325 0000328E 98                      cwde
  3326 0000328F 05[00000000]            add EAX,list
  3327 00003294 89C3                    mov EBX,EAX
  3328 00003296 66A1[02000000]          mov AX,[RC+2]
  3329 0000329C 66C1E002                sal AX,2
  3330 000032A0 660B05[04000000]        or AX,[RC+4]
  3331 000032A7 668903                  mov [EBX],AX
  3332 000032AA 66A1[00000000]          mov AX,[RC]
  3333 000032B0 66894302                mov [EBX+2],AX
  3334                                 
  3335 000032B4 66A1[00000000]          mov AX,[R9]
  3336 000032BA 662B05[00000000]        sub AX,[R7]
  3337 000032C1 66A3[00000000]          mov [R9],AX
  3338                                 
  3339 000032C7 66A1[00000000]          mov AX,[R9]
  3340 000032CD 98                      cwde
  3341 000032CE 05[00000000]            add EAX,list
  3342 000032D3 89C3                    mov EBX,EAX
  3343 000032D5 66A1[02000000]          mov AX,[RV+2]
  3344 000032DB 66C1E002                sal AX,2
  3345 000032DF 660B05[04000000]        or AX,[RV+4]
  3346 000032E6 668903                  mov [EBX],AX
  3347 000032E9 66A1[00000000]          mov AX,[RV]
  3348 000032EF 66894302                mov [EBX+2],AX
  3349                                 
  3350 000032F3 66A1[00000000]          mov AX,[R9]
  3351 000032F9 662B05[00000000]        sub AX,[R7]
  3352 00003300 66A3[00000000]          mov [R9],AX
  3353                                 
  3354 00003306 66A1[00000000]          mov AX,[R9]
  3355 0000330C 98                      cwde
  3356 0000330D 05[00000000]            add EAX,list
  3357 00003312 89C3                    mov EBX,EAX
  3358 00003314 66A1[02000000]          mov AX,[RY+2]
  3359 0000331A 66C1E002                sal AX,2
  3360 0000331E 660B05[04000000]        or AX,[RY+4]
  3361 00003325 668903                  mov [EBX],AX
  3362 00003328 66A1[00000000]          mov AX,[RY]
  3363 0000332E 66894302                mov [EBX+2],AX
  3364                                 
  3365 00003332 66A1[00000000]          mov AX,[R9]
  3366 00003338 662B05[00000000]        sub AX,[R7]
  3367 0000333F 66A3[00000000]          mov [RR],AX
  3368                                 
  3369 00003345 66A1[00000000]          mov AX,[RR]
  3370 0000334B 98                      cwde
  3371 0000334C 05[00000000]            add EAX,list
  3372 00003351 89C3                    mov EBX,EAX
  3373 00003353 66A1[02000000]          mov AX,[RZ+2]
  3374 00003359 66C1E002                sal AX,2
  3375 0000335D 660B05[04000000]        or AX,[RZ+4]
  3376 00003364 668903                  mov [EBX],AX
  3377 00003367 66A1[00000000]          mov AX,[RZ]
  3378 0000336D 66894302                mov [EBX+2],AX
  3379                                 
  3380 00003371 66A1[00000000]          mov AX,[RR]
  3381 00003377 662B05[00000000]        sub AX,[R7]
  3382 0000337E 66A3[00000000]          mov [R9],AX
  3383                                 
  3384 00003384 66A1[00000000]          mov AX,[R9]
  3385 0000338A 98                      cwde
  3386 0000338B 05[00000000]            add EAX,list
  3387 00003390 89C3                    mov EBX,EAX
  3388 00003392 66A1[02000000]          mov AX,[RW+2]
  3389 00003398 66C1E002                sal AX,2
  3390 0000339C 660B05[04000000]        or AX,[RW+4]
  3391 000033A3 668903                  mov [EBX],AX
  3392 000033A6 66A1[00000000]          mov AX,[RW]
  3393 000033AC 66894302                mov [EBX+2],AX
  3394                                 
  3395 000033B0 66A1[00000000]          mov AX,[R9]
  3396 000033B6 662B05[00000000]        sub AX,[R4]
  3397 000033BD 66A3[00000000]          mov [R9],AX
  3398                                 
  3399 000033C3 66A1[00000000]          mov AX,[R9]
  3400 000033C9 98                      cwde
  3401 000033CA 05[00000000]            add EAX,list
  3402 000033CF 89C3                    mov EBX,EAX
  3403 000033D1 66A1[02000000]          mov AX,[RK+2]
  3404 000033D7 66C1E002                sal AX,2
  3405 000033DB 660B05[04000000]        or AX,[RK+4]
  3406 000033E2 668903                  mov [EBX],AX
  3407 000033E5 66A1[00000000]          mov AX,[RK]
  3408 000033EB 66894302                mov [EBX+2],AX
  3409                                 
  3410 000033EF 66A1[00000000]          mov AX,[RZ]
  3411 000033F5 662B05[00000000]        sub AX,[R7]
  3412 000033FC 66A3[00000000]          mov [RZ],AX
  3413                                 
  3414 00003402 EB44                    jmp L48
  3415                                 
  3416                                 
  3417                                 L47:
  3418                                 
  3419 00003404 66A1[00000000]          mov AX,[RR]
  3420 0000340A 663B05[00000000]        cmp AX,[R0]
  3421 00003411 0F847CD6FFFF            jz L05
  3422                                 
  3423 00003417 66A1[00000000]          mov AX,[RR]
  3424 0000341D 98                      cwde
  3425 0000341E 05[00000000]            add EAX,list
  3426 00003423 89C3                    mov EBX,EAX
  3427 00003425 668B4302                mov AX,[EBX+2]
  3428 00003429 66A3[00000000]          mov [RZ],AX
  3429 0000342F 668B03                  mov AX,[EBX]
  3430 00003432 6689C2                  mov DX,AX
  3431 00003435 6683E203                and DX,3
  3432 00003439 668915[04000000]        mov [RZ+4],DX
  3433 00003440 66C1F802                sar AX,2
  3434 00003444 66A3[02000000]          mov [RZ+2],AX
  3435                                 
  3436                                 
  3437                                 L48:
  3438                                 
  3439 0000344A 66A1[00000000]          mov AX,[RR]
  3440 00003450 662B05[00000000]        sub AX,[R7]
  3441 00003457 66A3[00000000]          mov [RU],AX
  3442                                 
  3443 0000345D 66A1[00000000]          mov AX,[RU]
  3444 00003463 98                      cwde
  3445 00003464 05[00000000]            add EAX,list
  3446 00003469 89C3                    mov EBX,EAX
  3447 0000346B 668B4302                mov AX,[EBX+2]
  3448 0000346F 66A3[00000000]          mov [RY],AX
  3449 00003475 668B03                  mov AX,[EBX]
  3450 00003478 6689C2                  mov DX,AX
  3451 0000347B 6683E203                and DX,3
  3452 0000347F 668915[04000000]        mov [RY+4],DX
  3453 00003486 66C1F802                sar AX,2
  3454 0000348A 66A3[02000000]          mov [RY+2],AX
  3455                                 
  3456 00003490 66A1[04000000]          mov AX,[RY+4]
  3457 00003496 663B05[04000000]        cmp AX,[R1+4]
  3458 0000349D 0F842BF9FFFF            jz L44
  3459                                 
  3460 000034A3 66A1[02000000]          mov AX,[RY+2]
  3461 000034A9 663B05[02000000]        cmp AX,[R0+2]
  3462 000034B0 0F8490020000            jz L49
  3463                                 
  3464 000034B6 66A1[00000000]          mov AX,[RU]
  3465 000034BC 98                      cwde
  3466 000034BD 05[00000000]            add EAX,list
  3467 000034C2 89C3                    mov EBX,EAX
  3468 000034C4 66A1[02000000]          mov AX,[R0+2]
  3469 000034CA 66C1E002                sal AX,2
  3470 000034CE 660B05[04000000]        or AX,[R0+4]
  3471 000034D5 668903                  mov [EBX],AX
  3472 000034D8 66A1[00000000]          mov AX,[R0]
  3473 000034DE 66894302                mov [EBX+2],AX
  3474                                 
  3475 000034E2 66A1[00000000]          mov AX,[RU]
  3476 000034E8 662B05[00000000]        sub AX,[R4]
  3477 000034EF 66A3[00000000]          mov [RU],AX
  3478                                 
  3479 000034F5 66A1[00000000]          mov AX,[RU]
  3480 000034FB 98                      cwde
  3481 000034FC 05[00000000]            add EAX,list
  3482 00003501 89C3                    mov EBX,EAX
  3483 00003503 668B4302                mov AX,[EBX+2]
  3484 00003507 66A3[00000000]          mov [RK],AX
  3485 0000350D 668B03                  mov AX,[EBX]
  3486 00003510 6689C2                  mov DX,AX
  3487 00003513 6683E203                and DX,3
  3488 00003517 668915[04000000]        mov [RK+4],DX
  3489 0000351E 66C1F802                sar AX,2
  3490 00003522 66A3[02000000]          mov [RK+2],AX
  3491                                 
  3492 00003528 66A1[00000000]          mov AX,[RU]
  3493 0000352E 660305[00000000]        add AX,[R0]
  3494 00003535 66A3[00000000]          mov [RV],AX
  3495                                 
  3496 0000353B 66A1[00000000]          mov AX,[RU]
  3497 00003541 662B05[00000000]        sub AX,[R7]
  3498 00003548 66A3[00000000]          mov [R9],AX
  3499                                 
  3500 0000354E 66A1[00000000]          mov AX,[R9]
  3501 00003554 660305[00000000]        add AX,[R0]
  3502 0000355B 66A3[00000000]          mov [RC],AX
  3503                                 
  3504 00003561 66A1[00000000]          mov AX,[RY]
  3505 00003567 98                      cwde
  3506 00003568 05[00000000]            add EAX,list
  3507 0000356D 89C3                    mov EBX,EAX
  3508 0000356F 668B4302                mov AX,[EBX+2]
  3509 00003573 66A3[00000000]          mov [RX],AX
  3510 00003579 668B03                  mov AX,[EBX]
  3511 0000357C 6689C2                  mov DX,AX
  3512 0000357F 6683E203                and DX,3
  3513 00003583 668915[04000000]        mov [RX+4],DX
  3514 0000358A 66C1F802                sar AX,2
  3515 0000358E 66A3[02000000]          mov [RX+2],AX
  3516                                 
  3517 00003594 B8[00000000]            mov EAX,G113
  3518 00003599 2D[00000000]            sub EAX,progr
  3519 0000359E 66A3[00000000]          mov [RB],AX
  3520 000035A4 E9CB000000              jmp L99
  3521                                 G113:
  3522                                 
  3523 000035A9 66A1[00000000]          mov AX,[RR]
  3524 000035AF 660305[00000000]        add AX,[R4]
  3525 000035B6 66A3[00000000]          mov [RY],AX
  3526                                 
  3527 000035BC 66A1[00000000]          mov AX,[RY]
  3528 000035C2 98                      cwde
  3529 000035C3 05[00000000]            add EAX,list
  3530 000035C8 89C3                    mov EBX,EAX
  3531 000035CA 668B4302                mov AX,[EBX+2]
  3532 000035CE 66A3[00000000]          mov [RW],AX
  3533 000035D4 668B03                  mov AX,[EBX]
  3534 000035D7 6689C2                  mov DX,AX
  3535 000035DA 6683E203                and DX,3
  3536 000035DE 668915[04000000]        mov [RW+4],DX
  3537 000035E5 66C1F802                sar AX,2
  3538 000035E9 66A3[02000000]          mov [RW+2],AX
  3539                                 
  3540 000035EF 66A1[00000000]          mov AX,[RR]
  3541 000035F5 662B05[00000000]        sub AX,[R4]
  3542 000035FC 66A3[00000000]          mov [RY],AX
  3543                                 
  3544 00003602 66A1[00000000]          mov AX,[R8]
  3545 00003608 663B05[00000000]        cmp AX,[RY]
  3546 0000360F 0F8D0B1C0000            jge L97
  3547                                 
  3548 00003615 66A1[00000000]          mov AX,[RY]
  3549 0000361B 98                      cwde
  3550 0000361C 05[00000000]            add EAX,list
  3551 00003621 89C3                    mov EBX,EAX
  3552 00003623 668B4302                mov AX,[EBX+2]
  3553 00003627 66A3[00000000]          mov [RY],AX
  3554 0000362D 668B03                  mov AX,[EBX]
  3555 00003630 6689C2                  mov DX,AX
  3556 00003633 6683E203                and DX,3
  3557 00003637 668915[04000000]        mov [RY+4],DX
  3558 0000363E 66C1F802                sar AX,2
  3559 00003642 66A3[02000000]          mov [RY+2],AX
  3560                                 
  3561 00003648 66A1[00000000]          mov AX,[RW]
  3562 0000364E 98                      cwde
  3563 0000364F 05[00000000]            add EAX,list
  3564 00003654 89C3                    mov EBX,EAX
  3565 00003656 66A1[02000000]          mov AX,[RY+2]
  3566 0000365C 66C1E002                sal AX,2
  3567 00003660 660B05[04000000]        or AX,[RY+4]
  3568 00003667 668903                  mov [EBX],AX
  3569 0000366A 66A1[00000000]          mov AX,[RY]
  3570 00003670 66894302                mov [EBX+2],AX
  3571                                 
  3572 00003674 E91BD4FFFF              jmp L05
  3573                                 
  3574                                 
  3575                                 L99:
  3576                                 
  3577 00003679 66A1[02000000]          mov AX,[RZ+2]
  3578 0000367F 663B05[02000000]        cmp AX,[R1+2]
  3579 00003686 0F8564080000            jnz L60
  3580                                 
  3581 0000368C 66A1[04000000]          mov AX,[R0+4]
  3582 00003692 66A3[04000000]          mov [RX+4],AX
  3583                                 
  3584 00003698 66A1[02000000]          mov AX,[RY+2]
  3585 0000369E 662B05[02000000]        sub AX,[R1+2]
  3586 000036A5 66A3[02000000]          mov [RX+2],AX
  3587                                 
  3588 000036AB 66A1[02000000]          mov AX,[R1+2]
  3589 000036B1 660305[02000000]        add AX,[R0+2]
  3590 000036B8 66A3[02000000]          mov [RY+2],AX
  3591                                 
  3592 000036BE 66A1[00000000]          mov AX,[RU]
  3593 000036C4 660305[00000000]        add AX,[R7]
  3594 000036CB 66A3[00000000]          mov [RU],AX
  3595                                 
  3596 000036D1 66A1[00000000]          mov AX,[RU]
  3597 000036D7 98                      cwde
  3598 000036D8 05[00000000]            add EAX,list
  3599 000036DD 89C3                    mov EBX,EAX
  3600 000036DF 66A1[02000000]          mov AX,[RY+2]
  3601 000036E5 66C1E002                sal AX,2
  3602 000036E9 660B05[04000000]        or AX,[RY+4]
  3603 000036F0 668903                  mov [EBX],AX
  3604 000036F3 66A1[00000000]          mov AX,[RY]
  3605 000036F9 66894302                mov [EBX+2],AX
  3606                                 
  3607 000036FD 66A1[00000000]          mov AX,[RU]
  3608 00003703 660305[00000000]        add AX,[R7]
  3609 0000370A 66A3[00000000]          mov [RU],AX
  3610                                 
  3611 00003710 66A1[00000000]          mov AX,[RU]
  3612 00003716 98                      cwde
  3613 00003717 05[00000000]            add EAX,list
  3614 0000371C 89C3                    mov EBX,EAX
  3615 0000371E 66A1[02000000]          mov AX,[RX+2]
  3616 00003724 66C1E002                sal AX,2
  3617 00003728 660B05[04000000]        or AX,[RX+4]
  3618 0000372F 668903                  mov [EBX],AX
  3619 00003732 66A1[00000000]          mov AX,[RX]
  3620 00003738 66894302                mov [EBX+2],AX
  3621                                 
  3622 0000373C 66A1[00000000]          mov AX,[RB]
  3623 00003742 98                      cwde
  3624 00003743 05[00000000]            add EAX,progr
  3625 00003748 89C3                    mov EBX,EAX
  3626 0000374A FFE3                    jmp EBX
  3627                                 
  3628                                 
  3629                                 L49:
  3630                                 
  3631 0000374C 66A1[04000000]          mov AX,[RY+4]
  3632 00003752 663B05[04000000]        cmp AX,[R1+4]
  3633 00003759 0F846FF6FFFF            jz L44
  3634                                 
  3635 0000375F 66A1[00000000]          mov AX,[RR]
  3636 00003765 660305[00000000]        add AX,[R7]
  3637 0000376C 66A3[00000000]          mov [RR],AX
  3638                                 
  3639 00003772 66A1[00000000]          mov AX,[RR]
  3640 00003778 98                      cwde
  3641 00003779 05[00000000]            add EAX,list
  3642 0000377E 89C3                    mov EBX,EAX
  3643 00003780 668B4302                mov AX,[EBX+2]
  3644 00003784 66A3[00000000]          mov [RY],AX
  3645 0000378A 668B03                  mov AX,[EBX]
  3646 0000378D 6689C2                  mov DX,AX
  3647 00003790 6683E203                and DX,3
  3648 00003794 668915[04000000]        mov [RY+4],DX
  3649 0000379B 66C1F802                sar AX,2
  3650 0000379F 66A3[02000000]          mov [RY+2],AX
  3651                                 
  3652 000037A5 66A1[00000000]          mov AX,[RR]
  3653 000037AB 660305[00000000]        add AX,[R7]
  3654 000037B2 66A3[00000000]          mov [RR],AX
  3655                                 
  3656 000037B8 66A1[00000000]          mov AX,[RR]
  3657 000037BE 98                      cwde
  3658 000037BF 05[00000000]            add EAX,list
  3659 000037C4 89C3                    mov EBX,EAX
  3660 000037C6 668B4302                mov AX,[EBX+2]
  3661 000037CA 66A3[00000000]          mov [RW],AX
  3662 000037D0 668B03                  mov AX,[EBX]
  3663 000037D3 6689C2                  mov DX,AX
  3664 000037D6 6683E203                and DX,3
  3665 000037DA 668915[04000000]        mov [RW+4],DX
  3666 000037E1 66C1F802                sar AX,2
  3667 000037E5 66A3[02000000]          mov [RW+2],AX
  3668                                 
  3669 000037EB 66A1[00000000]          mov AX,[RW]
  3670 000037F1 98                      cwde
  3671 000037F2 05[00000000]            add EAX,list
  3672 000037F7 89C3                    mov EBX,EAX
  3673 000037F9 66A1[02000000]          mov AX,[RY+2]
  3674 000037FF 66C1E002                sal AX,2
  3675 00003803 660B05[04000000]        or AX,[RY+4]
  3676 0000380A 668903                  mov [EBX],AX
  3677 0000380D 66A1[00000000]          mov AX,[RY]
  3678 00003813 66894302                mov [EBX+2],AX
  3679                                 
  3680 00003817 66A1[00000000]          mov AX,[RR]
  3681 0000381D 660305[00000000]        add AX,[R7]
  3682 00003824 66A3[00000000]          mov [RR],AX
  3683                                 
  3684 0000382A 66A1[00000000]          mov AX,[RR]
  3685 00003830 98                      cwde
  3686 00003831 05[00000000]            add EAX,list
  3687 00003836 89C3                    mov EBX,EAX
  3688 00003838 668B4302                mov AX,[EBX+2]
  3689 0000383C 66A3[00000000]          mov [RC],AX
  3690 00003842 668B03                  mov AX,[EBX]
  3691 00003845 6689C2                  mov DX,AX
  3692 00003848 6683E203                and DX,3
  3693 0000384C 668915[04000000]        mov [RC+4],DX
  3694 00003853 66C1F802                sar AX,2
  3695 00003857 66A3[02000000]          mov [RC+2],AX
  3696                                 
  3697 0000385D 66A1[00000000]          mov AX,[RR]
  3698 00003863 660305[00000000]        add AX,[R7]
  3699 0000386A 66A3[00000000]          mov [RR],AX
  3700                                 
  3701 00003870 66A1[00000000]          mov AX,[RR]
  3702 00003876 98                      cwde
  3703 00003877 05[00000000]            add EAX,list
  3704 0000387C 89C3                    mov EBX,EAX
  3705 0000387E 668B4302                mov AX,[EBX+2]
  3706 00003882 66A3[00000000]          mov [RR],AX
  3707 00003888 668B03                  mov AX,[EBX]
  3708 0000388B 6689C2                  mov DX,AX
  3709 0000388E 6683E203                and DX,3
  3710 00003892 668915[04000000]        mov [RR+4],DX
  3711 00003899 66C1F802                sar AX,2
  3712 0000389D 66A3[02000000]          mov [RR+2],AX
  3713                                 
  3714 000038A3 E9ECD1FFFF              jmp L05
  3715                                 
  3716                                 
  3717                                 L50:
  3718                                 
  3719 000038A8 66A1[04000000]          mov AX,[R1+4]
  3720 000038AE 66A3[04000000]          mov [RY+4],AX
  3721                                 
  3722 000038B4 66A1[02000000]          mov AX,[RL+2]
  3723 000038BA 660305[02000000]        add AX,[R0+2]
  3724 000038C1 66A3[02000000]          mov [RY+2],AX
  3725                                 
  3726 000038C7 66A1[00000000]          mov AX,[R8]
  3727 000038CD 662B05[00000000]        sub AX,[R7]
  3728 000038D4 66A3[00000000]          mov [R8],AX
  3729                                 
  3730 000038DA E94A020000              jmp L54
  3731                                 
  3732                                 
  3733                                 L51:
  3734                                 
  3735 000038DF 8B1D[00000000]          mov EBX,[LBR]
  3736 000038E5 8A83[00000000]          mov AL,[LINE+EBX]
  3737 000038EB 6698                    cbw
  3738 000038ED 66A3[02000000]          mov [RI+2],AX
  3739 000038F3 43                      inc EBX
  3740 000038F4 891D[00000000]          mov [LBR],EBX
  3741                                 
  3742 000038FA 66A1[00000000]          mov AX,[R8]
  3743 00003900 98                      cwde
  3744 00003901 05[00000000]            add EAX,list
  3745 00003906 89C3                    mov EBX,EAX
  3746 00003908 66A1[02000000]          mov AX,[RI+2]
  3747 0000390E 66C1E002                sal AX,2
  3748 00003912 660B05[04000000]        or AX,[RI+4]
  3749 00003919 668903                  mov [EBX],AX
  3750 0000391C 66A1[00000000]          mov AX,[RI]
  3751 00003922 66894302                mov [EBX+2],AX
  3752                                 
  3753 00003926 66A1[02000000]          mov AX,[RI+2]
  3754 0000392C 663B05[02000000]        cmp AX,[RC+2]
  3755 00003933 0F84FB000000            jz L52
  3756                                 
  3757 00003939 66A1[02000000]          mov AX,[RI+2]
  3758 0000393F 663B05[02000000]        cmp AX,[RD+2]
  3759 00003946 0F84E8000000            jz L52
  3760                                 
  3761 0000394C 66A1[02000000]          mov AX,[RI+2]
  3762 00003952 662B05[02000000]        sub AX,[RE+2]
  3763 00003959 66A3[02000000]          mov [RI+2],AX
  3764                                 
  3765 0000395F 66A1[04000000]          mov AX,[R3+4]
  3766 00003965 66A3[04000000]          mov [RZ+4],AX
  3767                                 
  3768 0000396B 8B1D[00000000]          mov EBX,[LBR]
  3769 00003971 8A83[00000000]          mov AL,[LINE+EBX]
  3770 00003977 6698                    cbw
  3771 00003979 66A3[02000000]          mov [RZ+2],AX
  3772 0000397F 43                      inc EBX
  3773 00003980 891D[00000000]          mov [LBR],EBX
  3774                                 
  3775 00003986 66A1[02000000]          mov AX,[RZ+2]
  3776 0000398C 662B05[02000000]        sub AX,[RE+2]
  3777 00003993 66A3[02000000]          mov [RZ+2],AX
  3778                                 
  3779 00003999 66A1[02000000]          mov AX,[RI+2]
  3780 0000399F 66A3[00000000]          mov [RZ],AX
  3781                                 
  3782 000039A5 66A1[00000000]          mov AX,[R8]
  3783 000039AB 98                      cwde
  3784 000039AC 05[00000000]            add EAX,list
  3785 000039B1 89C3                    mov EBX,EAX
  3786 000039B3 66A1[02000000]          mov AX,[RZ+2]
  3787 000039B9 66C1E002                sal AX,2
  3788 000039BD 660B05[04000000]        or AX,[RZ+4]
  3789 000039C4 668903                  mov [EBX],AX
  3790 000039C7 66A1[00000000]          mov AX,[RZ]
  3791 000039CD 66894302                mov [EBX+2],AX
  3792                                 
  3793 000039D1 66A1[00000000]          mov AX,[R0]
  3794 000039D7 663B05[00000000]        cmp AX,[RZ]
  3795 000039DE 7D58                    jge L52
  3796                                 
  3797 000039E0 66A1[00000000]          mov AX,[RZ]
  3798 000039E6 663B05[00000000]        cmp AX,[R5]
  3799 000039ED 7D49                    jge L52
  3800                                 
  3801 000039EF 66A1[04000000]          mov AX,[R2+4]
  3802 000039F5 66A3[04000000]          mov [RZ+4],AX
  3803                                 
  3804 000039FB 66A1[00000000]          mov AX,[RZ]
  3805 00003A01 66F72D[00000000]        imul word [R7]
  3806 00003A08 66A3[00000000]          mov [RZ],AX
  3807                                 
  3808 00003A0E 66A1[00000000]          mov AX,[R8]
  3809 00003A14 98                      cwde
  3810 00003A15 05[00000000]            add EAX,list
  3811 00003A1A 89C3                    mov EBX,EAX
  3812 00003A1C 66A1[02000000]          mov AX,[RZ+2]
  3813 00003A22 66C1E002                sal AX,2
  3814 00003A26 660B05[04000000]        or AX,[RZ+4]
  3815 00003A2D 668903                  mov [EBX],AX
  3816 00003A30 66A1[00000000]          mov AX,[RZ]
  3817 00003A36 66894302                mov [EBX+2],AX
  3818                                 
  3819                                 
  3820                                 L52:
  3821                                 
  3822 00003A3A 66A1[00000000]          mov AX,[R8]
  3823 00003A40 660305[00000000]        add AX,[R7]
  3824 00003A47 66A3[00000000]          mov [R8],AX
  3825                                 
  3826 00003A4D 66A1[00000000]          mov AX,[R8]
  3827 00003A53 663B05[00000000]        cmp AX,[R9]
  3828 00003A5A 0F8DC0170000            jge L97
  3829                                 
  3830 00003A60 8B1D[00000000]          mov EBX,[LBR]
  3831 00003A66 8A83[00000000]          mov AL,[LINE+EBX]
  3832 00003A6C 6698                    cbw
  3833 00003A6E 66A3[02000000]          mov [RI+2],AX
  3834 00003A74 43                      inc EBX
  3835 00003A75 891D[00000000]          mov [LBR],EBX
  3836                                 
  3837 00003A7B 66A1[00000000]          mov AX,[R8]
  3838 00003A81 98                      cwde
  3839 00003A82 05[00000000]            add EAX,list
  3840 00003A87 89C3                    mov EBX,EAX
  3841 00003A89 66A1[02000000]          mov AX,[RI+2]
  3842 00003A8F 66C1E002                sal AX,2
  3843 00003A93 660B05[04000000]        or AX,[RI+4]
  3844 00003A9A 668903                  mov [EBX],AX
  3845 00003A9D 66A1[00000000]          mov AX,[RI]
  3846 00003AA3 66894302                mov [EBX+2],AX
  3847                                 
  3848 00003AA7 66A1[02000000]          mov AX,[RI+2]
  3849 00003AAD 663B05[02000000]        cmp AX,[RD+2]
  3850 00003AB4 0F841FFEFFFF            jz L51
  3851                                 
  3852 00003ABA 66A1[02000000]          mov AX,[RI+2]
  3853 00003AC0 663B05[02000000]        cmp AX,[RL+2]
  3854 00003AC7 7411                    jz L53
  3855                                 
  3856 00003AC9 66A1[02000000]          mov AX,[RI+2]
  3857 00003ACF 663B05[02000000]        cmp AX,[RC+2]
  3858 00003AD6 0F8558FFFFFF            jnz L52
  3859                                 
  3860                                 
  3861                                 L53:
  3862                                 
  3863 00003ADC 66A1[00000000]          mov AX,[R8]
  3864 00003AE2 660305[00000000]        add AX,[R0]
  3865 00003AE9 66A3[00000000]          mov [RY],AX
  3866                                 
  3867 00003AEF 66A1[00000000]          mov AX,[RU]
  3868 00003AF5 98                      cwde
  3869 00003AF6 05[00000000]            add EAX,list
  3870 00003AFB 89C3                    mov EBX,EAX
  3871 00003AFD 66A1[02000000]          mov AX,[RY+2]
  3872 00003B03 66C1E002                sal AX,2
  3873 00003B07 660B05[04000000]        or AX,[RY+4]
  3874 00003B0E 668903                  mov [EBX],AX
  3875 00003B11 66A1[00000000]          mov AX,[RY]
  3876 00003B17 66894302                mov [EBX+2],AX
  3877                                 
  3878 00003B1B 66A1[00000000]          mov AX,[R8]
  3879 00003B21 660305[00000000]        add AX,[R0]
  3880 00003B28 66A3[00000000]          mov [RU],AX
  3881                                 
  3882                                 
  3883                                 L54:
  3884                                 
  3885 00003B2E 66A1[00000000]          mov AX,[RA]
  3886 00003B34 98                      cwde
  3887 00003B35 05[00000000]            add EAX,list
  3888 00003B3A 89C3                    mov EBX,EAX
  3889 00003B3C 668B4302                mov AX,[EBX+2]
  3890 00003B40 66A3[00000000]          mov [RI],AX
  3891 00003B46 668B03                  mov AX,[EBX]
  3892 00003B49 6689C2                  mov DX,AX
  3893 00003B4C 6683E203                and DX,3
  3894 00003B50 668915[04000000]        mov [RI+4],DX
  3895 00003B57 66C1F802                sar AX,2
  3896 00003B5B 66A3[02000000]          mov [RI+2],AX
  3897                                 
  3898 00003B61 66A1[02000000]          mov AX,[RI+2]
  3899 00003B67 98                      cwde
  3900 00003B68 890424                  mov [ESP],EAX
  3901 00003B6B E8(F6FFFFFF)            call iread
  3902 00003B70 66A3[04000000]          mov [RI+4],AX
  3903                                 
  3904 00003B76 66A1[04000000]          mov AX,[RI+4]
  3905 00003B7C 663B05[04000000]        cmp AX,[R0+4]
  3906 00003B83 0F85E4160000            jnz L98
  3907                                 
  3908 00003B89 8B1D[00000000]          mov EBX,[LBR]
  3909 00003B8F 8A83[00000000]          mov AL,[LINE+EBX]
  3910 00003B95 6698                    cbw
  3911 00003B97 66A3[02000000]          mov [RI+2],AX
  3912 00003B9D 43                      inc EBX
  3913 00003B9E 891D[00000000]          mov [LBR],EBX
  3914                                 
  3915 00003BA4 66A1[00000000]          mov AX,[R0]
  3916 00003BAA 660305[00000000]        add AX,[R0]
  3917 00003BB1 66A3[00000000]          mov [RI],AX
  3918                                 
  3919 00003BB7 66A1[00000000]          mov AX,[R8]
  3920 00003BBD 660305[00000000]        add AX,[R7]
  3921 00003BC4 66A3[00000000]          mov [R8],AX
  3922                                 
  3923 00003BCA 66A1[00000000]          mov AX,[R8]
  3924 00003BD0 98                      cwde
  3925 00003BD1 05[00000000]            add EAX,list
  3926 00003BD6 89C3                    mov EBX,EAX
  3927 00003BD8 66A1[02000000]          mov AX,[RI+2]
  3928 00003BDE 66C1E002                sal AX,2
  3929 00003BE2 660B05[04000000]        or AX,[RI+4]
  3930 00003BE9 668903                  mov [EBX],AX
  3931 00003BEC 66A1[00000000]          mov AX,[RI]
  3932 00003BF2 66894302                mov [EBX+2],AX
  3933                                 
  3934 00003BF6 66A1[02000000]          mov AX,[RI+2]
  3935 00003BFC 663B05[02000000]        cmp AX,[RD+2]
  3936 00003C03 0F84D0FCFFFF            jz L51
  3937                                 
  3938 00003C09 66A1[02000000]          mov AX,[RI+2]
  3939 00003C0F 663B05[02000000]        cmp AX,[RC+2]
  3940 00003C16 0F8518FEFFFF            jnz L52
  3941                                 
  3942 00003C1C 66A1[00000000]          mov AX,[R8]
  3943 00003C22 660305[00000000]        add AX,[R0]
  3944 00003C29 66A3[00000000]          mov [RY],AX
  3945                                 
  3946 00003C2F 66A1[00000000]          mov AX,[RU]
  3947 00003C35 98                      cwde
  3948 00003C36 05[00000000]            add EAX,list
  3949 00003C3B 89C3                    mov EBX,EAX
  3950 00003C3D 66A1[02000000]          mov AX,[RY+2]
  3951 00003C43 66C1E002                sal AX,2
  3952 00003C47 660B05[04000000]        or AX,[RY+4]
  3953 00003C4E 668903                  mov [EBX],AX
  3954 00003C51 66A1[00000000]          mov AX,[RY]
  3955 00003C57 66894302                mov [EBX+2],AX
  3956                                 
  3957 00003C5B 66A1[00000000]          mov AX,[R8]
  3958 00003C61 98                      cwde
  3959 00003C62 05[00000000]            add EAX,list
  3960 00003C67 89C3                    mov EBX,EAX
  3961 00003C69 66A1[02000000]          mov AX,[R1+2]
  3962 00003C6F 66C1E002                sal AX,2
  3963 00003C73 660B05[04000000]        or AX,[R1+4]
  3964 00003C7A 668903                  mov [EBX],AX
  3965 00003C7D 66A1[00000000]          mov AX,[R1]
  3966 00003C83 66894302                mov [EBX+2],AX
  3967                                 
  3968 00003C87 66A1[00000000]          mov AX,[R8]
  3969 00003C8D 660305[00000000]        add AX,[R7]
  3970 00003C94 66A3[00000000]          mov [R8],AX
  3971                                 
  3972 00003C9A 66A1[00000000]          mov AX,[R8]
  3973 00003CA0 663B05[00000000]        cmp AX,[R9]
  3974 00003CA7 0F8D73150000            jge L97
  3975                                 
  3976 00003CAD 8B1D[00000000]          mov EBX,[LBR]
  3977 00003CB3 8A83[00000000]          mov AL,[LINE+EBX]
  3978 00003CB9 6698                    cbw
  3979 00003CBB 66A3[02000000]          mov [RI+2],AX
  3980 00003CC1 43                      inc EBX
  3981 00003CC2 891D[00000000]          mov [LBR],EBX
  3982                                 
  3983 00003CC8 66A1[02000000]          mov AX,[RI+2]
  3984 00003CCE 663B05[02000000]        cmp AX,[RC+2]
  3985 00003CD5 750A                    jnz L55
  3986                                 
  3987 00003CD7 66A1[04000000]          mov AX,[R0+4]
  3988 00003CDD 66A3[04000000]          mov [RB+4],AX
  3989                                 
  3990                                 
  3991                                 L55:
  3992                                 
  3993 00003CE3 66A1[00000000]          mov AX,[RD]
  3994 00003CE9 98                      cwde
  3995 00003CEA 05[00000000]            add EAX,progr
  3996 00003CEF 89C3                    mov EBX,EAX
  3997 00003CF1 FFE3                    jmp EBX
  3998                                 
  3999                                 
  4000                                 L56:
  4001                                 
  4002 00003CF3 66A1[02000000]          mov AX,[R3+2]
  4003 00003CF9 660305[02000000]        add AX,[R0+2]
  4004 00003D00 66A3[02000000]          mov [RW+2],AX
  4005                                 
  4006 00003D06 66A1[00000000]          mov AX,[RC]
  4007 00003D0C 660305[00000000]        add AX,[R0]
  4008 00003D13 66A3[00000000]          mov [RX],AX
  4009                                 
  4010                                 
  4011                                 L57:
  4012                                 
  4013 00003D19 66A1[00000000]          mov AX,[RX]
  4014 00003D1F 98                      cwde
  4015 00003D20 05[00000000]            add EAX,list
  4016 00003D25 89C3                    mov EBX,EAX
  4017 00003D27 668B4302                mov AX,[EBX+2]
  4018 00003D2B 66A3[00000000]          mov [RX],AX
  4019 00003D31 668B03                  mov AX,[EBX]
  4020 00003D34 6689C2                  mov DX,AX
  4021 00003D37 6683E203                and DX,3
  4022 00003D3B 668915[04000000]        mov [RX+4],DX
  4023 00003D42 66C1F802                sar AX,2
  4024 00003D46 66A3[02000000]          mov [RX+2],AX
  4025                                 
  4026 00003D4C 66A1[02000000]          mov AX,[RX+2]
  4027 00003D52 98                      cwde
  4028 00003D53 890424                  mov [ESP],EAX
  4029 00003D56 E8(F6FFFFFF)            call iwrch
  4030 00003D5B 66A3[04000000]          mov [RX+4],AX
  4031                                 
  4032 00003D61 66A1[04000000]          mov AX,[RX+4]
  4033 00003D67 663B05[04000000]        cmp AX,[R1+4]
  4034 00003D6E 75A7                    jnz L57
  4035                                 
  4036 00003D70 66A1[02000000]          mov AX,[RW+2]
  4037 00003D76 98                      cwde
  4038 00003D77 890424                  mov [ESP],EAX
  4039 00003D7A E8(F6FFFFFF)            call iwrite
  4040 00003D7F 66A3[04000000]          mov [RW+4],AX
  4041                                 
  4042 00003D85 66A1[04000000]          mov AX,[RW+4]
  4043 00003D8B 663B05[04000000]        cmp AX,[R0+4]
  4044 00003D92 0F85D5140000            jnz L98
  4045                                 
  4046 00003D98 66A1[02000000]          mov AX,[RX+2]
  4047 00003D9E 663B05[02000000]        cmp AX,[RL+2]
  4048 00003DA5 0F8432FFFFFF            jz L55
  4049                                 
  4050 00003DAB 66A1[02000000]          mov AX,[RX+2]
  4051 00003DB1 98                      cwde
  4052 00003DB2 890424                  mov [ESP],EAX
  4053 00003DB5 E8(F6FFFFFF)            call iwrch
  4054 00003DBA 66A3[04000000]          mov [RX+4],AX
  4055                                 
  4056 00003DC0 E94FFFFFFF              jmp L57
  4057                                 
  4058                                 
  4059                                 L58:
  4060                                 
  4061 00003DC5 66A1[00000000]          mov AX,[RW]
  4062 00003DCB 660305[00000000]        add AX,[RZ]
  4063 00003DD2 66A3[00000000]          mov [RZ],AX
  4064                                 
  4065 00003DD8 66A1[00000000]          mov AX,[RW]
  4066 00003DDE 663B05[00000000]        cmp AX,[R0]
  4067 00003DE5 0F8505010000            jnz L60
  4068                                 
  4069 00003DEB 66A1[04000000]          mov AX,[RB+4]
  4070 00003DF1 663B05[04000000]        cmp AX,[R2+4]
  4071 00003DF8 0F8449070000            jz L71
  4072                                 
  4073                                 
  4074                                 L59:
  4075                                 
  4076 00003DFE 66A1[00000000]          mov AX,[RV]
  4077 00003E04 663B05[00000000]        cmp AX,[R9]
  4078 00003E0B 0F8D26070000            jge L70
  4079                                 
  4080 00003E11 66A1[00000000]          mov AX,[RV]
  4081 00003E17 98                      cwde
  4082 00003E18 05[00000000]            add EAX,list
  4083 00003E1D 89C3                    mov EBX,EAX
  4084 00003E1F 668B4302                mov AX,[EBX+2]
  4085 00003E23 66A3[00000000]          mov [RZ],AX
  4086 00003E29 668B03                  mov AX,[EBX]
  4087 00003E2C 6689C2                  mov DX,AX
  4088 00003E2F 6683E203                and DX,3
  4089 00003E33 668915[04000000]        mov [RZ+4],DX
  4090 00003E3A 66C1F802                sar AX,2
  4091 00003E3E 66A3[02000000]          mov [RZ+2],AX
  4092                                 
  4093 00003E44 66A1[00000000]          mov AX,[RQ]
  4094 00003E4A 98                      cwde
  4095 00003E4B 05[00000000]            add EAX,list
  4096 00003E50 89C3                    mov EBX,EAX
  4097 00003E52 668B4302                mov AX,[EBX+2]
  4098 00003E56 66A3[00000000]          mov [RY],AX
  4099 00003E5C 668B03                  mov AX,[EBX]
  4100 00003E5F 6689C2                  mov DX,AX
  4101 00003E62 6683E203                and DX,3
  4102 00003E66 668915[04000000]        mov [RY+4],DX
  4103 00003E6D 66C1F802                sar AX,2
  4104 00003E71 66A3[02000000]          mov [RY+2],AX
  4105                                 
  4106 00003E77 66A1[00000000]          mov AX,[RY]
  4107 00003E7D 98                      cwde
  4108 00003E7E 05[00000000]            add EAX,list
  4109 00003E83 89C3                    mov EBX,EAX
  4110 00003E85 668B4302                mov AX,[EBX+2]
  4111 00003E89 66A3[00000000]          mov [RX],AX
  4112 00003E8F 668B03                  mov AX,[EBX]
  4113 00003E92 6689C2                  mov DX,AX
  4114 00003E95 6683E203                and DX,3
  4115 00003E99 668915[04000000]        mov [RX+4],DX
  4116 00003EA0 66C1F802                sar AX,2
  4117 00003EA4 66A3[02000000]          mov [RX+2],AX
  4118                                 
  4119 00003EAA 66A1[04000000]          mov AX,[RZ+4]
  4120 00003EB0 663B05[04000000]        cmp AX,[R2+4]
  4121 00003EB7 0F84D0020000            jz L63
  4122                                 
  4123 00003EBD 66A1[04000000]          mov AX,[RZ+4]
  4124 00003EC3 663B05[04000000]        cmp AX,[R3+4]
  4125 00003ECA 0F847E030000            jz L64
  4126                                 
  4127 00003ED0 66A1[00000000]          mov AX,[RQ]
  4128 00003ED6 660305[00000000]        add AX,[R7]
  4129 00003EDD 66A3[00000000]          mov [RV],AX
  4130                                 
  4131 00003EE3 66A1[00000000]          mov AX,[RV]
  4132 00003EE9 660305[00000000]        add AX,[R7]
  4133 00003EF0 66A3[00000000]          mov [RQ],AX
  4134                                 
  4135                                 
  4136                                 L60:
  4137                                 
  4138 00003EF6 66A1[00000000]          mov AX,[RZ]
  4139 00003EFC 98                      cwde
  4140 00003EFD 05[00000000]            add EAX,list
  4141 00003F02 89C3                    mov EBX,EAX
  4142 00003F04 668B4302                mov AX,[EBX+2]
  4143 00003F08 66A3[00000000]          mov [RW],AX
  4144 00003F0E 668B03                  mov AX,[EBX]
  4145 00003F11 6689C2                  mov DX,AX
  4146 00003F14 6683E203                and DX,3
  4147 00003F18 668915[04000000]        mov [RW+4],DX
  4148 00003F1F 66C1F802                sar AX,2
  4149 00003F23 66A3[02000000]          mov [RW+2],AX
  4150                                 
  4151 00003F29 66A1[04000000]          mov AX,[RW+4]
  4152 00003F2F 663B05[04000000]        cmp AX,[R1+4]
  4153 00003F36 0F84A2050000            jz L69
  4154                                 
  4155 00003F3C 66A1[04000000]          mov AX,[RW+4]
  4156 00003F42 663B05[04000000]        cmp AX,[R2+4]
  4157 00003F49 0F846E010000            jz L62
  4158                                 
  4159 00003F4F 66A1[02000000]          mov AX,[RY+2]
  4160 00003F55 663B05[02000000]        cmp AX,[R0+2]
  4161 00003F5C 0F845DFEFFFF            jz L58
  4162                                 
  4163 00003F62 66A1[02000000]          mov AX,[RX+2]
  4164 00003F68 663B05[02000000]        cmp AX,[RW+2]
  4165 00003F6F 0F854AFEFFFF            jnz L58
  4166                                 
  4167 00003F75 66A1[00000000]          mov AX,[RW]
  4168 00003F7B 663B05[00000000]        cmp AX,[R0]
  4169 00003F82 0F84C4000000            jz L61
  4170                                 
  4171 00003F88 66A1[04000000]          mov AX,[RX+4]
  4172 00003F8E 663B05[04000000]        cmp AX,[R3+4]
  4173 00003F95 0F84B1000000            jz L61
  4174                                 
  4175 00003F9B 66A1[04000000]          mov AX,[RB+4]
  4176 00003FA1 663B05[04000000]        cmp AX,[R2+4]
  4177 00003FA8 0F849E000000            jz L61
  4178                                 
  4179 00003FAE 66A1[00000000]          mov AX,[RV]
  4180 00003FB4 662B05[00000000]        sub AX,[R7]
  4181 00003FBB 66A3[00000000]          mov [RQ],AX
  4182                                 
  4183 00003FC1 66A1[00000000]          mov AX,[RQ]
  4184 00003FC7 662B05[00000000]        sub AX,[R7]
  4185 00003FCE 66A3[00000000]          mov [RV],AX
  4186                                 
  4187 00003FD4 66A1[00000000]          mov AX,[R8]
  4188 00003FDA 663B05[00000000]        cmp AX,[RV]
  4189 00003FE1 0F8D39120000            jge L97
  4190                                 
  4191 00003FE7 66A1[00000000]          mov AX,[RQ]
  4192 00003FED 98                      cwde
  4193 00003FEE 05[00000000]            add EAX,list
  4194 00003FF3 89C3                    mov EBX,EAX
  4195 00003FF5 66A1[02000000]          mov AX,[RY+2]
  4196 00003FFB 66C1E002                sal AX,2
  4197 00003FFF 660B05[04000000]        or AX,[RY+4]
  4198 00004006 668903                  mov [EBX],AX
  4199 00004009 66A1[00000000]          mov AX,[RY]
  4200 0000400F 66894302                mov [EBX+2],AX
  4201                                 
  4202 00004013 66A1[00000000]          mov AX,[RW]
  4203 00004019 660305[00000000]        add AX,[RZ]
  4204 00004020 66A3[00000000]          mov [RW],AX
  4205                                 
  4206 00004026 66A1[00000000]          mov AX,[RV]
  4207 0000402C 98                      cwde
  4208 0000402D 05[00000000]            add EAX,list
  4209 00004032 89C3                    mov EBX,EAX
  4210 00004034 66A1[02000000]          mov AX,[RW+2]
  4211 0000403A 66C1E002                sal AX,2
  4212 0000403E 660B05[04000000]        or AX,[RW+4]
  4213 00004045 668903                  mov [EBX],AX
  4214 00004048 66A1[00000000]          mov AX,[RW]
  4215 0000404E 66894302                mov [EBX+2],AX
  4216                                 
  4217                                 
  4218                                 L61:
  4219                                 
  4220 00004052 66A1[02000000]          mov AX,[RY+2]
  4221 00004058 662B05[02000000]        sub AX,[R1+2]
  4222 0000405F 66A3[02000000]          mov [RY+2],AX
  4223                                 
  4224 00004065 66A1[00000000]          mov AX,[RX]
  4225 0000406B 660305[00000000]        add AX,[R0]
  4226 00004072 66A3[00000000]          mov [RY],AX
  4227                                 
  4228 00004078 66A1[00000000]          mov AX,[RX]
  4229 0000407E 98                      cwde
  4230 0000407F 05[00000000]            add EAX,list
  4231 00004084 89C3                    mov EBX,EAX
  4232 00004086 668B4302                mov AX,[EBX+2]
  4233 0000408A 66A3[00000000]          mov [RX],AX
  4234 00004090 668B03                  mov AX,[EBX]
  4235 00004093 6689C2                  mov DX,AX
  4236 00004096 6683E203                and DX,3
  4237 0000409A 668915[04000000]        mov [RX+4],DX
  4238 000040A1 66C1F802                sar AX,2
  4239 000040A5 66A3[02000000]          mov [RX+2],AX
  4240                                 
  4241 000040AB 66A1[00000000]          mov AX,[RZ]
  4242 000040B1 660305[00000000]        add AX,[R7]
  4243 000040B8 66A3[00000000]          mov [RZ],AX
  4244                                 
  4245 000040BE E92EFEFFFF              jmp L60
  4246                                 
  4247                                 
  4248                                 L62:
  4249                                 
  4250 000040C3 66A1[04000000]          mov AX,[RX+4]
  4251 000040C9 663B05[04000000]        cmp AX,[R2+4]
  4252 000040D0 747E                    jz L61
  4253                                 
  4254 000040D2 66A1[04000000]          mov AX,[RB+4]
  4255 000040D8 663B05[04000000]        cmp AX,[R2+4]
  4256 000040DF 0F84DAFCFFFF            jz L58
  4257                                 
  4258 000040E5 66A1[00000000]          mov AX,[RV]
  4259 000040EB 662B05[00000000]        sub AX,[R7]
  4260 000040F2 66A3[00000000]          mov [RQ],AX
  4261                                 
  4262 000040F8 66A1[00000000]          mov AX,[RQ]
  4263 000040FE 662B05[00000000]        sub AX,[R7]
  4264 00004105 66A3[00000000]          mov [RV],AX
  4265                                 
  4266 0000410B 66A1[00000000]          mov AX,[R8]
  4267 00004111 663B05[00000000]        cmp AX,[RV]
  4268 00004118 0F8D02110000            jge L97
  4269                                 
  4270 0000411E 66A1[00000000]          mov AX,[RQ]
  4271 00004124 98                      cwde
  4272 00004125 05[00000000]            add EAX,list
  4273 0000412A 89C3                    mov EBX,EAX
  4274 0000412C 66A1[02000000]          mov AX,[RY+2]
  4275 00004132 66C1E002                sal AX,2
  4276 00004136 660B05[04000000]        or AX,[RY+4]
  4277 0000413D 668903                  mov [EBX],AX
  4278 00004140 66A1[00000000]          mov AX,[RY]
  4279 00004146 66894302                mov [EBX+2],AX
  4280                                 
  4281 0000414A 66A1[04000000]          mov AX,[R2+4]
  4282 00004150 66A3[04000000]          mov [RZ+4],AX
  4283                                 
  4284 00004156 66A1[00000000]          mov AX,[RV]
  4285 0000415C 98                      cwde
  4286 0000415D 05[00000000]            add EAX,list
  4287 00004162 89C3                    mov EBX,EAX
  4288 00004164 66A1[02000000]          mov AX,[RZ+2]
  4289 0000416A 66C1E002                sal AX,2
  4290 0000416E 660B05[04000000]        or AX,[RZ+4]
  4291 00004175 668903                  mov [EBX],AX
  4292 00004178 66A1[00000000]          mov AX,[RZ]
  4293 0000417E 66894302                mov [EBX+2],AX
  4294                                 
  4295 00004182 66A1[04000000]          mov AX,[R3+4]
  4296 00004188 66A3[04000000]          mov [RZ+4],AX
  4297                                 
  4298 0000418E E92DFCFFFF              jmp L58
  4299                                 
  4300                                 
  4301                                 L63:
  4302                                 
  4303 00004193 66A1[04000000]          mov AX,[R3+4]
  4304 00004199 66A3[04000000]          mov [RZ+4],AX
  4305                                 
  4306 0000419F 66A1[00000000]          mov AX,[RZ]
  4307 000041A5 660305[00000000]        add AX,[R7]
  4308 000041AC 66A3[00000000]          mov [RZ],AX
  4309                                 
  4310 000041B2 66A1[00000000]          mov AX,[RV]
  4311 000041B8 98                      cwde
  4312 000041B9 05[00000000]            add EAX,list
  4313 000041BE 89C3                    mov EBX,EAX
  4314 000041C0 66A1[02000000]          mov AX,[RZ+2]
  4315 000041C6 66C1E002                sal AX,2
  4316 000041CA 660B05[04000000]        or AX,[RZ+4]
  4317 000041D1 668903                  mov [EBX],AX
  4318 000041D4 66A1[00000000]          mov AX,[RZ]
  4319 000041DA 66894302                mov [EBX+2],AX
  4320                                 
  4321 000041DE 66A1[00000000]          mov AX,[RU]
  4322 000041E4 660305[00000000]        add AX,[R7]
  4323 000041EB 66A3[00000000]          mov [RU],AX
  4324                                 
  4325 000041F1 66A1[04000000]          mov AX,[R0+4]
  4326 000041F7 66A3[04000000]          mov [RW+4],AX
  4327                                 
  4328 000041FD 66A1[02000000]          mov AX,[R0+2]
  4329 00004203 660305[02000000]        add AX,[R0+2]
  4330 0000420A 66A3[02000000]          mov [RW+2],AX
  4331                                 
  4332 00004210 66A1[00000000]          mov AX,[RY]
  4333 00004216 660305[00000000]        add AX,[R0]
  4334 0000421D 66A3[00000000]          mov [RW],AX
  4335                                 
  4336 00004223 66A1[00000000]          mov AX,[RU]
  4337 00004229 98                      cwde
  4338 0000422A 05[00000000]            add EAX,list
  4339 0000422F 89C3                    mov EBX,EAX
  4340 00004231 66A1[02000000]          mov AX,[RW+2]
  4341 00004237 66C1E002                sal AX,2
  4342 0000423B 660B05[04000000]        or AX,[RW+4]
  4343 00004242 668903                  mov [EBX],AX
  4344 00004245 66A1[00000000]          mov AX,[RW]
  4345 0000424B 66894302                mov [EBX+2],AX
  4346                                 
  4347 0000424F E99DFCFFFF              jmp L60
  4348                                 
  4349                                 
  4350                                 L64:
  4351                                 
  4352 00004254 66A1[02000000]          mov AX,[RY+2]
  4353 0000425A 663B05[02000000]        cmp AX,[R0+2]
  4354 00004261 0F840D020000            jz L68
  4355                                 
  4356 00004267 66A1[02000000]          mov AX,[RX+2]
  4357 0000426D 663B05[02000000]        cmp AX,[RR+2]
  4358 00004274 0F84FA010000            jz L68
  4359                                 
  4360 0000427A 66A1[00000000]          mov AX,[RU]
  4361 00004280 98                      cwde
  4362 00004281 05[00000000]            add EAX,list
  4363 00004286 89C3                    mov EBX,EAX
  4364 00004288 668B4302                mov AX,[EBX+2]
  4365 0000428C 66A3[00000000]          mov [RW],AX
  4366 00004292 668B03                  mov AX,[EBX]
  4367 00004295 6689C2                  mov DX,AX
  4368 00004298 6683E203                and DX,3
  4369 0000429C 668915[04000000]        mov [RW+4],DX
  4370 000042A3 66C1F802                sar AX,2
  4371 000042A7 66A3[02000000]          mov [RW+2],AX
  4372                                 
  4373 000042AD 66A1[02000000]          mov AX,[RW+2]
  4374 000042B3 660305[02000000]        add AX,[R1+2]
  4375 000042BA 66A3[02000000]          mov [RW+2],AX
  4376                                 
  4377 000042C0 66A1[02000000]          mov AX,[RY+2]
  4378 000042C6 662B05[02000000]        sub AX,[R1+2]
  4379 000042CD 66A3[02000000]          mov [RY+2],AX
  4380                                 
  4381 000042D3 66A1[00000000]          mov AX,[RX]
  4382 000042D9 660305[00000000]        add AX,[R0]
  4383 000042E0 66A3[00000000]          mov [RY],AX
  4384                                 
  4385 000042E6 66A1[02000000]          mov AX,[RX+2]
  4386 000042EC 663B05[02000000]        cmp AX,[RM+2]
  4387 000042F3 0F85EB000000            jnz L67
  4388                                 
  4389 000042F9 66A1[02000000]          mov AX,[R0+2]
  4390 000042FF 660305[02000000]        add AX,[R0+2]
  4391 00004306 66A3[02000000]          mov [RZ+2],AX
  4392                                 
  4393                                 
  4394                                 L65:
  4395                                 
  4396 0000430C 66A1[02000000]          mov AX,[RZ+2]
  4397 00004312 660305[02000000]        add AX,[R1+2]
  4398 00004319 66A3[02000000]          mov [RZ+2],AX
  4399                                 
  4400                                 
  4401                                 L66:
  4402                                 
  4403 0000431F 66A1[02000000]          mov AX,[RY+2]
  4404 00004325 663B05[02000000]        cmp AX,[R0+2]
  4405 0000432C 0F8442010000            jz L68
  4406                                 
  4407 00004332 66A1[00000000]          mov AX,[RX]
  4408 00004338 98                      cwde
  4409 00004339 05[00000000]            add EAX,list
  4410 0000433E 89C3                    mov EBX,EAX
  4411 00004340 668B4302                mov AX,[EBX+2]
  4412 00004344 66A3[00000000]          mov [RX],AX
  4413 0000434A 668B03                  mov AX,[EBX]
  4414 0000434D 6689C2                  mov DX,AX
  4415 00004350 6683E203                and DX,3
  4416 00004354 668915[04000000]        mov [RX+4],DX
  4417 0000435B 66C1F802                sar AX,2
  4418 0000435F 66A3[02000000]          mov [RX+2],AX
  4419                                 
  4420 00004365 66A1[02000000]          mov AX,[RY+2]
  4421 0000436B 662B05[02000000]        sub AX,[R1+2]
  4422 00004372 66A3[02000000]          mov [RY+2],AX
  4423                                 
  4424 00004378 66A1[00000000]          mov AX,[RX]
  4425 0000437E 660305[00000000]        add AX,[R0]
  4426 00004385 66A3[00000000]          mov [RY],AX
  4427                                 
  4428 0000438B 66A1[02000000]          mov AX,[RW+2]
  4429 00004391 660305[02000000]        add AX,[R1+2]
  4430 00004398 66A3[02000000]          mov [RW+2],AX
  4431                                 
  4432 0000439E 66A1[02000000]          mov AX,[RX+2]
  4433 000043A4 663B05[02000000]        cmp AX,[RM+2]
  4434 000043AB 0F8455FFFFFF            jz L65
  4435                                 
  4436 000043B1 66A1[02000000]          mov AX,[RX+2]
  4437 000043B7 663B05[02000000]        cmp AX,[RR+2]
  4438 000043BE 0F8555FFFFFF            jnz L66
  4439                                 
  4440 000043C4 66A1[02000000]          mov AX,[RZ+2]
  4441 000043CA 662B05[02000000]        sub AX,[R1+2]
  4442 000043D1 66A3[02000000]          mov [RZ+2],AX
  4443                                 
  4444 000043D7 66A1[02000000]          mov AX,[RZ+2]
  4445 000043DD 663B05[02000000]        cmp AX,[R0+2]
  4446 000043E4 0F852FFFFFFF            jnz L66
  4447                                 
  4448                                 
  4449                                 L67:
  4450                                 
  4451 000043EA 66A1[00000000]          mov AX,[RX]
  4452 000043F0 98                      cwde
  4453 000043F1 05[00000000]            add EAX,list
  4454 000043F6 89C3                    mov EBX,EAX
  4455 000043F8 668B4302                mov AX,[EBX+2]
  4456 000043FC 66A3[00000000]          mov [RX],AX
  4457 00004402 668B03                  mov AX,[EBX]
  4458 00004405 6689C2                  mov DX,AX
  4459 00004408 6683E203                and DX,3
  4460 0000440C 668915[04000000]        mov [RX+4],DX
  4461 00004413 66C1F802                sar AX,2
  4462 00004417 66A3[02000000]          mov [RX+2],AX
  4463                                 
  4464 0000441D 66A1[00000000]          mov AX,[RQ]
  4465 00004423 98                      cwde
  4466 00004424 05[00000000]            add EAX,list
  4467 00004429 89C3                    mov EBX,EAX
  4468 0000442B 66A1[02000000]          mov AX,[RY+2]
  4469 00004431 66C1E002                sal AX,2
  4470 00004435 660B05[04000000]        or AX,[RY+4]
  4471 0000443C 668903                  mov [EBX],AX
  4472 0000443F 66A1[00000000]          mov AX,[RY]
  4473 00004445 66894302                mov [EBX+2],AX
  4474                                 
  4475 00004449 66A1[00000000]          mov AX,[RU]
  4476 0000444F 98                      cwde
  4477 00004450 05[00000000]            add EAX,list
  4478 00004455 89C3                    mov EBX,EAX
  4479 00004457 66A1[02000000]          mov AX,[RW+2]
  4480 0000445D 66C1E002                sal AX,2
  4481 00004461 660B05[04000000]        or AX,[RW+4]
  4482 00004468 668903                  mov [EBX],AX
  4483 0000446B 66A1[00000000]          mov AX,[RW]
  4484 00004471 66894302                mov [EBX+2],AX
  4485                                 
  4486 00004475 E977FAFFFF              jmp L60
  4487                                 
  4488                                 
  4489                                 L68:
  4490                                 
  4491 0000447A 66A1[00000000]          mov AX,[RU]
  4492 00004480 98                      cwde
  4493 00004481 05[00000000]            add EAX,list
  4494 00004486 89C3                    mov EBX,EAX
  4495 00004488 66A1[02000000]          mov AX,[R3+2]
  4496 0000448E 66C1E002                sal AX,2
  4497 00004492 660B05[04000000]        or AX,[R3+4]
  4498 00004499 668903                  mov [EBX],AX
  4499 0000449C 66A1[00000000]          mov AX,[R3]
  4500 000044A2 66894302                mov [EBX+2],AX
  4501                                 
  4502 000044A6 66A1[00000000]          mov AX,[RU]
  4503 000044AC 662B05[00000000]        sub AX,[R7]
  4504 000044B3 66A3[00000000]          mov [RU],AX
  4505                                 
  4506 000044B9 66A1[00000000]          mov AX,[RQ]
  4507 000044BF 660305[00000000]        add AX,[R7]
  4508 000044C6 66A3[00000000]          mov [RV],AX
  4509                                 
  4510 000044CC 66A1[00000000]          mov AX,[RV]
  4511 000044D2 660305[00000000]        add AX,[R7]
  4512 000044D9 66A3[00000000]          mov [RQ],AX
  4513                                 
  4514 000044DF E915F9FFFF              jmp L59
  4515                                 
  4516                                 
  4517                                 L69:
  4518                                 
  4519 000044E4 66A1[02000000]          mov AX,[RY+2]
  4520 000044EA 663B05[02000000]        cmp AX,[R0+2]
  4521 000044F1 0F85C8F8FFFF            jnz L58
  4522                                 
  4523 000044F7 66A1[00000000]          mov AX,[RZ]
  4524 000044FD 660305[00000000]        add AX,[R7]
  4525 00004504 66A3[00000000]          mov [RU],AX
  4526                                 
  4527 0000450A 66A1[00000000]          mov AX,[RU]
  4528 00004510 98                      cwde
  4529 00004511 05[00000000]            add EAX,list
  4530 00004516 89C3                    mov EBX,EAX
  4531 00004518 668B4302                mov AX,[EBX+2]
  4532 0000451C 66A3[00000000]          mov [RY],AX
  4533 00004522 668B03                  mov AX,[EBX]
  4534 00004525 6689C2                  mov DX,AX
  4535 00004528 6683E203                and DX,3
  4536 0000452C 668915[04000000]        mov [RY+4],DX
  4537 00004533 66C1F802                sar AX,2
  4538 00004537 66A3[02000000]          mov [RY+2],AX
  4539                                 
  4540                                 
  4541                                 L70:
  4542                                 
  4543 0000453D 66A1[00000000]          mov AX,[RB]
  4544 00004543 98                      cwde
  4545 00004544 05[00000000]            add EAX,progr
  4546 00004549 89C3                    mov EBX,EAX
  4547 0000454B FFE3                    jmp EBX
  4548                                 
  4549                                 
  4550                                 L71:
  4551                                 
  4552 0000454D 66A1[00000000]          mov AX,[R8]
  4553 00004553 662B05[00000000]        sub AX,[RZ]
  4554 0000455A 66A3[00000000]          mov [RW],AX
  4555                                 
  4556 00004560 66A1[00000000]          mov AX,[RZ]
  4557 00004566 98                      cwde
  4558 00004567 05[00000000]            add EAX,list
  4559 0000456C 89C3                    mov EBX,EAX
  4560 0000456E 66A1[02000000]          mov AX,[RW+2]
  4561 00004574 66C1E002                sal AX,2
  4562 00004578 660B05[04000000]        or AX,[RW+4]
  4563 0000457F 668903                  mov [EBX],AX
  4564 00004582 66A1[00000000]          mov AX,[RW]
  4565 00004588 66894302                mov [EBX+2],AX
  4566                                 
  4567 0000458C 66A1[02000000]          mov AX,[RY+2]
  4568 00004592 663B05[02000000]        cmp AX,[R0+2]
  4569 00004599 0F84CB000000            jz L73
  4570                                 
  4571                                 
  4572                                 L72:
  4573                                 
  4574 0000459F 66A1[02000000]          mov AX,[RY+2]
  4575 000045A5 662B05[02000000]        sub AX,[R1+2]
  4576 000045AC 66A3[02000000]          mov [RY+2],AX
  4577                                 
  4578 000045B2 66A1[00000000]          mov AX,[RX]
  4579 000045B8 660305[00000000]        add AX,[R0]
  4580 000045BF 66A3[00000000]          mov [RY],AX
  4581                                 
  4582 000045C5 66A1[00000000]          mov AX,[R0]
  4583 000045CB 660305[00000000]        add AX,[R0]
  4584 000045D2 66A3[00000000]          mov [RX],AX
  4585                                 
  4586 000045D8 66A1[00000000]          mov AX,[R8]
  4587 000045DE 98                      cwde
  4588 000045DF 05[00000000]            add EAX,list
  4589 000045E4 89C3                    mov EBX,EAX
  4590 000045E6 66A1[02000000]          mov AX,[RX+2]
  4591 000045EC 66C1E002                sal AX,2
  4592 000045F0 660B05[04000000]        or AX,[RX+4]
  4593 000045F7 668903                  mov [EBX],AX
  4594 000045FA 66A1[00000000]          mov AX,[RX]
  4595 00004600 66894302                mov [EBX+2],AX
  4596                                 
  4597 00004604 66A1[00000000]          mov AX,[R8]
  4598 0000460A 660305[00000000]        add AX,[R7]
  4599 00004611 66A3[00000000]          mov [R8],AX
  4600                                 
  4601 00004617 66A1[00000000]          mov AX,[R8]
  4602 0000461D 663B05[00000000]        cmp AX,[R9]
  4603 00004624 0F8DF60B0000            jge L97
  4604                                 
  4605 0000462A 66A1[00000000]          mov AX,[RY]
  4606 00004630 98                      cwde
  4607 00004631 05[00000000]            add EAX,list
  4608 00004636 89C3                    mov EBX,EAX
  4609 00004638 668B4302                mov AX,[EBX+2]
  4610 0000463C 66A3[00000000]          mov [RX],AX
  4611 00004642 668B03                  mov AX,[EBX]
  4612 00004645 6689C2                  mov DX,AX
  4613 00004648 6683E203                and DX,3
  4614 0000464C 668915[04000000]        mov [RX+4],DX
  4615 00004653 66C1F802                sar AX,2
  4616 00004657 66A3[02000000]          mov [RX+2],AX
  4617                                 
  4618 0000465D 66A1[02000000]          mov AX,[RY+2]
  4619 00004663 663B05[02000000]        cmp AX,[R0+2]
  4620 0000466A 0F8529FFFFFF            jnz L72
  4621                                 
  4622                                 
  4623                                 L73:
  4624                                 
  4625 00004670 66A1[04000000]          mov AX,[R1+4]
  4626 00004676 66A3[04000000]          mov [RX+4],AX
  4627                                 
  4628 0000467C 66A1[00000000]          mov AX,[R0]
  4629 00004682 660305[00000000]        add AX,[R0]
  4630 00004689 66A3[00000000]          mov [RX],AX
  4631                                 
  4632 0000468F 66A1[00000000]          mov AX,[R8]
  4633 00004695 98                      cwde
  4634 00004696 05[00000000]            add EAX,list
  4635 0000469B 89C3                    mov EBX,EAX
  4636 0000469D 66A1[02000000]          mov AX,[RX+2]
  4637 000046A3 66C1E002                sal AX,2
  4638 000046A7 660B05[04000000]        or AX,[RX+4]
  4639 000046AE 668903                  mov [EBX],AX
  4640 000046B1 66A1[00000000]          mov AX,[RX]
  4641 000046B7 66894302                mov [EBX+2],AX
  4642                                 
  4643 000046BB 66A1[00000000]          mov AX,[R8]
  4644 000046C1 660305[00000000]        add AX,[R7]
  4645 000046C8 66A3[00000000]          mov [RU],AX
  4646                                 
  4647 000046CE 66A1[04000000]          mov AX,[R0+4]
  4648 000046D4 66A3[04000000]          mov [RY+4],AX
  4649                                 
  4650 000046DA 66A1[00000000]          mov AX,[RU]
  4651 000046E0 660305[00000000]        add AX,[R0]
  4652 000046E7 66A3[00000000]          mov [RY],AX
  4653                                 
  4654 000046ED 66A1[00000000]          mov AX,[RU]
  4655 000046F3 98                      cwde
  4656 000046F4 05[00000000]            add EAX,list
  4657 000046F9 89C3                    mov EBX,EAX
  4658 000046FB 66A1[02000000]          mov AX,[RY+2]
  4659 00004701 66C1E002                sal AX,2
  4660 00004705 660B05[04000000]        or AX,[RY+4]
  4661 0000470C 668903                  mov [EBX],AX
  4662 0000470F 66A1[00000000]          mov AX,[RY]
  4663 00004715 66894302                mov [EBX+2],AX
  4664                                 
  4665 00004719 66A1[00000000]          mov AX,[RU]
  4666 0000471F 660305[00000000]        add AX,[R7]
  4667 00004726 66A3[00000000]          mov [R8],AX
  4668                                 
  4669 0000472C 66A1[00000000]          mov AX,[R8]
  4670 00004732 663B05[00000000]        cmp AX,[R9]
  4671 00004739 0F8DE10A0000            jge L97
  4672                                 
  4673 0000473F 66A1[00000000]          mov AX,[RB]
  4674 00004745 98                      cwde
  4675 00004746 05[00000000]            add EAX,progr
  4676 0000474B 89C3                    mov EBX,EAX
  4677 0000474D FFE3                    jmp EBX
  4678                                 
  4679                                 
  4680                                 L74:
  4681                                 
  4682 0000474F 66A1[00000000]          mov AX,[R9]
  4683 00004755 660305[00000000]        add AX,[R0]
  4684 0000475C 66A3[00000000]          mov [RO],AX
  4685                                 
  4686 00004762 66A1[02000000]          mov AX,[RY+2]
  4687 00004768 660305[02000000]        add AX,[R0+2]
  4688 0000476F 66A3[02000000]          mov [RS+2],AX
  4689                                 
  4690 00004775 66A1[00000000]          mov AX,[RY]
  4691 0000477B 660305[00000000]        add AX,[R0]
  4692 00004782 66A3[00000000]          mov [RS],AX
  4693                                 
  4694 00004788 66A1[00000000]          mov AX,[R0]
  4695 0000478E 660305[00000000]        add AX,[R0]
  4696 00004795 66A3[00000000]          mov [RT],AX
  4697                                 
  4698 0000479B 66A1[02000000]          mov AX,[RY+2]
  4699 000047A1 663B05[02000000]        cmp AX,[R0+2]
  4700 000047A8 7521                    jnz L75
  4701                                 
  4702 000047AA 66A1[00000000]          mov AX,[R0]
  4703 000047B0 660305[00000000]        add AX,[R0]
  4704 000047B7 66A3[00000000]          mov [RN],AX
  4705                                 
  4706 000047BD 66A1[00000000]          mov AX,[RP]
  4707 000047C3 98                      cwde
  4708 000047C4 05[00000000]            add EAX,progr
  4709 000047C9 89C3                    mov EBX,EAX
  4710 000047CB FFE3                    jmp EBX
  4711                                 
  4712                                 
  4713                                 L75:
  4714                                 
  4715 000047CD 66A1[02000000]          mov AX,[RM+2]
  4716 000047D3 660305[02000000]        add AX,[R0+2]
  4717 000047DA 66A3[02000000]          mov [RT+2],AX
  4718                                 
  4719                                 
  4720                                 L76:
  4721                                 
  4722 000047E0 66A1[02000000]          mov AX,[RS+2]
  4723 000047E6 663B05[02000000]        cmp AX,[R0+2]
  4724 000047ED 0F840A080000            jz L93
  4725                                 
  4726 000047F3 66A1[00000000]          mov AX,[RS]
  4727 000047F9 98                      cwde
  4728 000047FA 05[00000000]            add EAX,list
  4729 000047FF 89C3                    mov EBX,EAX
  4730 00004801 668B4302                mov AX,[EBX+2]
  4731 00004805 66A3[00000000]          mov [RX],AX
  4732 0000480B 668B03                  mov AX,[EBX]
  4733 0000480E 6689C2                  mov DX,AX
  4734 00004811 6683E203                and DX,3
  4735 00004815 668915[04000000]        mov [RX+4],DX
  4736 0000481C 66C1F802                sar AX,2
  4737 00004820 66A3[02000000]          mov [RX+2],AX
  4738                                 
  4739 00004826 66A1[00000000]          mov AX,[RS]
  4740 0000482C 660305[00000000]        add AX,[R0]
  4741 00004833 66A3[00000000]          mov [RY],AX
  4742                                 
  4743 00004839 66A1[02000000]          mov AX,[R0+2]
  4744 0000483F 660305[02000000]        add AX,[R0+2]
  4745 00004846 66A3[02000000]          mov [RY+2],AX
  4746                                 
  4747 0000484C 66A1[02000000]          mov AX,[RX+2]
  4748 00004852 663B05[02000000]        cmp AX,[RM+2]
  4749 00004859 757B                    jnz L77
  4750                                 
  4751 0000485B 66A1[00000000]          mov AX,[R9]
  4752 00004861 98                      cwde
  4753 00004862 05[00000000]            add EAX,list
  4754 00004867 89C3                    mov EBX,EAX
  4755 00004869 66A1[02000000]          mov AX,[RT+2]
  4756 0000486F 66C1E002                sal AX,2
  4757 00004873 660B05[04000000]        or AX,[RT+4]
  4758 0000487A 668903                  mov [EBX],AX
  4759 0000487D 66A1[00000000]          mov AX,[RT]
  4760 00004883 66894302                mov [EBX+2],AX
  4761                                 
  4762 00004887 66A1[00000000]          mov AX,[R9]
  4763 0000488D 662B05[00000000]        sub AX,[R7]
  4764 00004894 66A3[00000000]          mov [R9],AX
  4765                                 
  4766 0000489A 66A1[00000000]          mov AX,[R8]
  4767 000048A0 663B05[00000000]        cmp AX,[R9]
  4768 000048A7 0F8D73090000            jge L97
  4769                                 
  4770 000048AD 66A1[02000000]          mov AX,[RS+2]
  4771 000048B3 662B05[02000000]        sub AX,[R1+2]
  4772 000048BA 66A3[02000000]          mov [RS+2],AX
  4773                                 
  4774 000048C0 66A1[00000000]          mov AX,[RX]
  4775 000048C6 660305[00000000]        add AX,[R0]
  4776 000048CD 66A3[00000000]          mov [RS],AX
  4777                                 
  4778 000048D3 E9F0FEFFFF              jmp L75
  4779                                 
  4780                                 
  4781                                 L77:
  4782                                 
  4783 000048D8 66A1[02000000]          mov AX,[RX+2]
  4784 000048DE 663B05[02000000]        cmp AX,[RN+2]
  4785 000048E5 0F84C1000000            jz L78
  4786                                 
  4787 000048EB 66A1[02000000]          mov AX,[RX+2]
  4788 000048F1 663B05[02000000]        cmp AX,[RO+2]
  4789 000048F8 0F84AE000000            jz L78
  4790                                 
  4791 000048FE 66A1[02000000]          mov AX,[RX+2]
  4792 00004904 663B05[02000000]        cmp AX,[RP+2]
  4793 0000490B 0F849B000000            jz L78
  4794                                 
  4795 00004911 66A1[02000000]          mov AX,[RX+2]
  4796 00004917 663B05[02000000]        cmp AX,[RQ+2]
  4797 0000491E 0F8488000000            jz L78
  4798                                 
  4799 00004924 66A1[02000000]          mov AX,[RX+2]
  4800 0000492A 663B05[02000000]        cmp AX,[RR+2]
  4801 00004931 747D                    jz L78
  4802                                 
  4803 00004933 66A1[02000000]          mov AX,[RY+2]
  4804 00004939 660305[02000000]        add AX,[R1+2]
  4805 00004940 66A3[02000000]          mov [RY+2],AX
  4806                                 
  4807 00004946 66A1[00000000]          mov AX,[RX]
  4808 0000494C 98                      cwde
  4809 0000494D 05[00000000]            add EAX,list
  4810 00004952 89C3                    mov EBX,EAX
  4811 00004954 668B4302                mov AX,[EBX+2]
  4812 00004958 66A3[00000000]          mov [RX],AX
  4813 0000495E 668B03                  mov AX,[EBX]
  4814 00004961 6689C2                  mov DX,AX
  4815 00004964 6683E203                and DX,3
  4816 00004968 668915[04000000]        mov [RX+4],DX
  4817 0000496F 66C1F802                sar AX,2
  4818 00004973 66A3[02000000]          mov [RX+2],AX
  4819                                 
  4820 00004979 66A1[02000000]          mov AX,[RS+2]
  4821 0000497F 663B05[02000000]        cmp AX,[RY+2]
  4822 00004986 0F8546FFFFFF            jnz L77
  4823                                 
  4824 0000498C 66A1[02000000]          mov AX,[RR+2]
  4825 00004992 660305[02000000]        add AX,[R0+2]
  4826 00004999 66A3[02000000]          mov [RX+2],AX
  4827                                 
  4828 0000499F 66A1[02000000]          mov AX,[RS+2]
  4829 000049A5 660305[02000000]        add AX,[R1+2]
  4830 000049AC 66A3[02000000]          mov [RS+2],AX
  4831                                 
  4832                                 
  4833                                 L78:
  4834                                 
  4835 000049B2 66A1[02000000]          mov AX,[RX+2]
  4836 000049B8 660305[02000000]        add AX,[R0+2]
  4837 000049BF 66A3[02000000]          mov [RJ+2],AX
  4838                                 
  4839 000049C5 66A1[00000000]          mov AX,[R0]
  4840 000049CB 660305[00000000]        add AX,[R0]
  4841 000049D2 66A3[00000000]          mov [RN],AX
  4842                                 
  4843 000049D8 66A1[02000000]          mov AX,[RS+2]
  4844 000049DE 662B05[02000000]        sub AX,[RY+2]
  4845 000049E5 66A3[02000000]          mov [RS+2],AX
  4846                                 
  4847 000049EB 66A1[02000000]          mov AX,[RS+2]
  4848 000049F1 662B05[02000000]        sub AX,[R1+2]
  4849 000049F8 66A3[02000000]          mov [RS+2],AX
  4850                                 
  4851 000049FE 66A1[00000000]          mov AX,[RX]
  4852 00004A04 660305[00000000]        add AX,[R0]
  4853 00004A0B 66A3[00000000]          mov [RS],AX
  4854                                 
  4855 00004A11 66A1[02000000]          mov AX,[RY+2]
  4856 00004A17 663B05[02000000]        cmp AX,[R0+2]
  4857 00004A1E 0F8480020000            jz L83
  4858                                 
  4859 00004A24 66A1[00000000]          mov AX,[RY]
  4860 00004A2A 98                      cwde
  4861 00004A2B 05[00000000]            add EAX,list
  4862 00004A30 89C3                    mov EBX,EAX
  4863 00004A32 668B4302                mov AX,[EBX+2]
  4864 00004A36 66A3[00000000]          mov [RX],AX
  4865 00004A3C 668B03                  mov AX,[EBX]
  4866 00004A3F 6689C2                  mov DX,AX
  4867 00004A42 6683E203                and DX,3
  4868 00004A46 668915[04000000]        mov [RX+4],DX
  4869 00004A4D 66C1F802                sar AX,2
  4870 00004A51 66A3[02000000]          mov [RX+2],AX
  4871                                 
  4872 00004A57 66A1[02000000]          mov AX,[RX+2]
  4873 00004A5D 66A3[00000000]          mov [RU],AX
  4874                                 
  4875 00004A63 66A1[00000000]          mov AX,[RU]
  4876 00004A69 662B05[00000000]        sub AX,[RE]
  4877 00004A70 66A3[00000000]          mov [RU],AX
  4878                                 
  4879 00004A76 66A1[00000000]          mov AX,[RU]
  4880 00004A7C 663B05[00000000]        cmp AX,[R5]
  4881 00004A83 7D11                    jge L79
  4882                                 
  4883 00004A85 66A1[00000000]          mov AX,[RU]
  4884 00004A8B 663B05[00000000]        cmp AX,[R0]
  4885 00004A92 0F8D92010000            jge L81
  4886                                 
  4887                                 
  4888                                 L79:
  4889                                 
  4890 00004A98 66A1[00000000]          mov AX,[R9]
  4891 00004A9E 660305[00000000]        add AX,[R7]
  4892 00004AA5 66A3[00000000]          mov [RV],AX
  4893                                 
  4894 00004AAB 66A1[00000000]          mov AX,[RF]
  4895 00004AB1 98                      cwde
  4896 00004AB2 05[00000000]            add EAX,list
  4897 00004AB7 89C3                    mov EBX,EAX
  4898 00004AB9 668B4302                mov AX,[EBX+2]
  4899 00004ABD 66A3[00000000]          mov [RW],AX
  4900 00004AC3 668B03                  mov AX,[EBX]
  4901 00004AC6 6689C2                  mov DX,AX
  4902 00004AC9 6683E203                and DX,3
  4903 00004ACD 668915[04000000]        mov [RW+4],DX
  4904 00004AD4 66C1F802                sar AX,2
  4905 00004AD8 66A3[02000000]          mov [RW+2],AX
  4906                                 
  4907 00004ADE 66A1[04000000]          mov AX,[R0+4]
  4908 00004AE4 66A3[04000000]          mov [RY+4],AX
  4909                                 
  4910 00004AEA 66A1[00000000]          mov AX,[RF]
  4911 00004AF0 660305[00000000]        add AX,[R0]
  4912 00004AF7 66A3[00000000]          mov [RZ],AX
  4913                                 
  4914 00004AFD B8[00000000]            mov EAX,G114
  4915 00004B02 2D[00000000]            sub EAX,progr
  4916 00004B07 66A3[00000000]          mov [RB],AX
  4917 00004B0D E9AEF2FFFF              jmp L58
  4918                                 G114:
  4919                                 
  4920 00004B12 66A1[04000000]          mov AX,[RY+4]
  4921 00004B18 663B05[04000000]        cmp AX,[R1+4]
  4922 00004B1F 0F857F010000            jnz L83
  4923                                 
  4924 00004B25 66A1[02000000]          mov AX,[RY+2]
  4925 00004B2B 663B05[02000000]        cmp AX,[R0+2]
  4926 00004B32 0F846C010000            jz L83
  4927                                 
  4928 00004B38 66A1[00000000]          mov AX,[RY]
  4929 00004B3E 98                      cwde
  4930 00004B3F 05[00000000]            add EAX,list
  4931 00004B44 89C3                    mov EBX,EAX
  4932 00004B46 668B4302                mov AX,[EBX+2]
  4933 00004B4A 66A3[00000000]          mov [RX],AX
  4934 00004B50 668B03                  mov AX,[EBX]
  4935 00004B53 6689C2                  mov DX,AX
  4936 00004B56 6683E203                and DX,3
  4937 00004B5A 668915[04000000]        mov [RX+4],DX
  4938 00004B61 66C1F802                sar AX,2
  4939 00004B65 66A3[02000000]          mov [RX+2],AX
  4940                                 
  4941 00004B6B 66A1[04000000]          mov AX,[R1+4]
  4942 00004B71 66A3[04000000]          mov [RN+4],AX
  4943                                 
  4944 00004B77 66A1[02000000]          mov AX,[RX+2]
  4945 00004B7D 663B05[02000000]        cmp AX,[RO+2]
  4946 00004B84 0F84C6000000            jz L82
  4947                                 
  4948 00004B8A 66A1[04000000]          mov AX,[R0+4]
  4949 00004B90 66A3[04000000]          mov [RN+4],AX
  4950                                 
  4951 00004B96 66A1[00000000]          mov AX,[RY]
  4952 00004B9C 660305[00000000]        add AX,[R0]
  4953 00004BA3 66A3[00000000]          mov [RX],AX
  4954                                 
  4955                                 
  4956                                 L80:
  4957                                 
  4958 00004BA9 66A1[00000000]          mov AX,[RX]
  4959 00004BAF 98                      cwde
  4960 00004BB0 05[00000000]            add EAX,list
  4961 00004BB5 89C3                    mov EBX,EAX
  4962 00004BB7 668B4302                mov AX,[EBX+2]
  4963 00004BBB 66A3[00000000]          mov [RX],AX
  4964 00004BC1 668B03                  mov AX,[EBX]
  4965 00004BC4 6689C2                  mov DX,AX
  4966 00004BC7 6683E203                and DX,3
  4967 00004BCB 668915[04000000]        mov [RX+4],DX
  4968 00004BD2 66C1F802                sar AX,2
  4969 00004BD6 66A3[02000000]          mov [RX+2],AX
  4970                                 
  4971 00004BDC 66A1[02000000]          mov AX,[RX+2]
  4972 00004BE2 66A3[00000000]          mov [RU],AX
  4973                                 
  4974 00004BE8 66A1[00000000]          mov AX,[RU]
  4975 00004BEE 662B05[00000000]        sub AX,[RE]
  4976 00004BF5 66A3[00000000]          mov [RU],AX
  4977                                 
  4978 00004BFB 66A1[00000000]          mov AX,[RU]
  4979 00004C01 663B05[00000000]        cmp AX,[R0]
  4980 00004C08 7424                    jz L81
  4981                                 
  4982 00004C0A 66A1[00000000]          mov AX,[RU]
  4983 00004C10 663B05[00000000]        cmp AX,[R5]
  4984 00004C17 0F8DE0030000            jge L93
  4985                                 
  4986 00004C1D 66A1[00000000]          mov AX,[R0]
  4987 00004C23 663B05[00000000]        cmp AX,[RU]
  4988 00004C2A 0F8DCD030000            jge L93
  4989                                 
  4990                                 
  4991                                 L81:
  4992                                 
  4993 00004C30 66A1[00000000]          mov AX,[RN]
  4994 00004C36 66F72D[00000000]        imul word [R5]
  4995 00004C3D 66A3[00000000]          mov [RN],AX
  4996                                 
  4997 00004C43 66A1[00000000]          mov AX,[RN]
  4998 00004C49 660305[00000000]        add AX,[RU]
  4999 00004C50 66A3[00000000]          mov [RN],AX
  5000                                 
  5001                                 
  5002                                 L82:
  5003                                 
  5004 00004C56 66A1[02000000]          mov AX,[RY+2]
  5005 00004C5C 662B05[02000000]        sub AX,[R1+2]
  5006 00004C63 66A3[02000000]          mov [RY+2],AX
  5007                                 
  5008 00004C69 66A1[02000000]          mov AX,[RY+2]
  5009 00004C6F 663B05[02000000]        cmp AX,[R0+2]
  5010 00004C76 0F8527FFFFFF            jnz L80
  5011                                 
  5012 00004C7C 66A1[04000000]          mov AX,[RN+4]
  5013 00004C82 663B05[04000000]        cmp AX,[R0+4]
  5014 00004C89 741D                    jz L83
  5015                                 
  5016 00004C8B 66A1[04000000]          mov AX,[R0+4]
  5017 00004C91 66A3[04000000]          mov [RN+4],AX
  5018                                 
  5019 00004C97 66A1[00000000]          mov AX,[R0]
  5020 00004C9D 662B05[00000000]        sub AX,[RN]
  5021 00004CA4 66A3[00000000]          mov [RN],AX
  5022                                 
  5023                                 
  5024                                 L83:
  5025                                 
  5026 00004CAA 66A1[02000000]          mov AX,[RJ+2]
  5027 00004CB0 663B05[02000000]        cmp AX,[RR+2]
  5028 00004CB7 0F84FE010000            jz L92
  5029                                 
  5030 00004CBD 66A1[02000000]          mov AX,[RT+2]
  5031 00004CC3 663B05[02000000]        cmp AX,[RM+2]
  5032 00004CCA 0F844B010000            jz L90
  5033                                 
  5034 00004CD0 66A1[02000000]          mov AX,[RJ+2]
  5035 00004CD6 663B05[02000000]        cmp AX,[RP+2]
  5036 00004CDD 0F8412010000            jz L89
  5037                                 
  5038 00004CE3 66A1[02000000]          mov AX,[RJ+2]
  5039 00004CE9 663B05[02000000]        cmp AX,[RQ+2]
  5040 00004CF0 0F84FF000000            jz L89
  5041                                 
  5042                                 
  5043                                 L84:
  5044                                 
  5045 00004CF6 66A1[02000000]          mov AX,[RT+2]
  5046 00004CFC 663B05[02000000]        cmp AX,[RQ+2]
  5047 00004D03 745B                    jz L87
  5048                                 
  5049 00004D05 66A1[02000000]          mov AX,[RT+2]
  5050 00004D0B 663B05[02000000]        cmp AX,[RP+2]
  5051 00004D12 7437                    jz L86
  5052                                 
  5053 00004D14 66A1[02000000]          mov AX,[RT+2]
  5054 00004D1A 663B05[02000000]        cmp AX,[RO+2]
  5055 00004D21 7413                    jz L85
  5056                                 
  5057 00004D23 66A1[00000000]          mov AX,[RT]
  5058 00004D29 660305[00000000]        add AX,[RN]
  5059 00004D30 66A3[00000000]          mov [RT],AX
  5060                                 
  5061 00004D36 EB3D                    jmp L88
  5062                                 
  5063                                 
  5064                                 L85:
  5065                                 
  5066 00004D38 66A1[00000000]          mov AX,[RT]
  5067 00004D3E 662B05[00000000]        sub AX,[RN]
  5068 00004D45 66A3[00000000]          mov [RT],AX
  5069                                 
  5070 00004D4B EB28                    jmp L88
  5071                                 
  5072                                 
  5073                                 L86:
  5074                                 
  5075 00004D4D 66A1[00000000]          mov AX,[RT]
  5076 00004D53 66F72D[00000000]        imul word [RN]
  5077 00004D5A 66A3[00000000]          mov [RT],AX
  5078                                 
  5079 00004D60 EB13                    jmp L88
  5080                                 
  5081                                 
  5082                                 L87:
  5083                                 
  5084 00004D62 66A1[00000000]          mov AX,[RT]
  5085 00004D68 6699                    cwd
  5086 00004D6A 66F73D[00000000]        idiv word [RN]
  5087 00004D71 66A3[00000000]          mov [RT],AX
  5088                                 
  5089                                 
  5090                                 L88:
  5091                                 
  5092 00004D77 66A1[02000000]          mov AX,[RJ+2]
  5093 00004D7D 660305[02000000]        add AX,[R0+2]
  5094 00004D84 66A3[02000000]          mov [RT+2],AX
  5095                                 
  5096 00004D8A 66A1[02000000]          mov AX,[RJ+2]
  5097 00004D90 663B05[02000000]        cmp AX,[RR+2]
  5098 00004D97 0F853DFAFFFF            jnz L76
  5099                                 
  5100 00004D9D 66A1[00000000]          mov AX,[RT]
  5101 00004DA3 660305[00000000]        add AX,[R0]
  5102 00004DAA 66A3[00000000]          mov [RN],AX
  5103                                 
  5104 00004DB0 66A1[00000000]          mov AX,[R9]
  5105 00004DB6 660305[00000000]        add AX,[R7]
  5106 00004DBD 66A3[00000000]          mov [R9],AX
  5107                                 
  5108 00004DC3 66A1[00000000]          mov AX,[R9]
  5109 00004DC9 98                      cwde
  5110 00004DCA 05[00000000]            add EAX,list
  5111 00004DCF 89C3                    mov EBX,EAX
  5112 00004DD1 668B4302                mov AX,[EBX+2]
  5113 00004DD5 66A3[00000000]          mov [RT],AX
  5114 00004DDB 668B03                  mov AX,[EBX]
  5115 00004DDE 6689C2                  mov DX,AX
  5116 00004DE1 6683E203                and DX,3
  5117 00004DE5 668915[04000000]        mov [RT+4],DX
  5118 00004DEC 66C1F802                sar AX,2
  5119 00004DF0 66A3[02000000]          mov [RT+2],AX
  5120                                 
  5121 00004DF6 E9C1000000              jmp L92
  5122                                 
  5123                                 
  5124                                 L89:
  5125                                 
  5126 00004DFB 66A1[02000000]          mov AX,[RT+2]
  5127 00004E01 663B05[02000000]        cmp AX,[RP+2]
  5128 00004E08 0F8439FFFFFF            jz L86
  5129                                 
  5130 00004E0E 66A1[02000000]          mov AX,[RT+2]
  5131 00004E14 663B05[02000000]        cmp AX,[RQ+2]
  5132 00004E1B 0F843BFFFFFF            jz L87
  5133                                 
  5134                                 
  5135                                 L90:
  5136                                 
  5137 00004E21 66A1[00000000]          mov AX,[R9]
  5138 00004E27 98                      cwde
  5139 00004E28 05[00000000]            add EAX,list
  5140 00004E2D 89C3                    mov EBX,EAX
  5141 00004E2F 66A1[02000000]          mov AX,[RT+2]
  5142 00004E35 66C1E002                sal AX,2
  5143 00004E39 660B05[04000000]        or AX,[RT+4]
  5144 00004E40 668903                  mov [EBX],AX
  5145 00004E43 66A1[00000000]          mov AX,[RT]
  5146 00004E49 66894302                mov [EBX+2],AX
  5147                                 
  5148 00004E4D 66A1[00000000]          mov AX,[R9]
  5149 00004E53 662B05[00000000]        sub AX,[R7]
  5150 00004E5A 66A3[00000000]          mov [R9],AX
  5151                                 
  5152 00004E60 66A1[00000000]          mov AX,[R8]
  5153 00004E66 663B05[00000000]        cmp AX,[R9]
  5154 00004E6D 0F8DAD030000            jge L97
  5155                                 
  5156 00004E73 66A1[02000000]          mov AX,[RJ+2]
  5157 00004E79 660305[02000000]        add AX,[R0+2]
  5158 00004E80 66A3[02000000]          mov [RT+2],AX
  5159                                 
  5160 00004E86 66A1[00000000]          mov AX,[RN]
  5161 00004E8C 660305[00000000]        add AX,[R0]
  5162 00004E93 66A3[00000000]          mov [RT],AX
  5163                                 
  5164 00004E99 E93DF9FFFF              jmp L76
  5165                                 
  5166                                 
  5167                                 L91:
  5168                                 
  5169 00004E9E 66A1[02000000]          mov AX,[RS+2]
  5170 00004EA4 663B05[02000000]        cmp AX,[R0+2]
  5171 00004EAB 0F854C010000            jnz L93
  5172                                 
  5173 00004EB1 66A1[00000000]          mov AX,[RP]
  5174 00004EB7 98                      cwde
  5175 00004EB8 05[00000000]            add EAX,progr
  5176 00004EBD 89C3                    mov EBX,EAX
  5177 00004EBF FFE3                    jmp EBX
  5178                                 
  5179                                 
  5180                                 L92:
  5181                                 
  5182 00004EC1 66A1[02000000]          mov AX,[RT+2]
  5183 00004EC7 663B05[02000000]        cmp AX,[RM+2]
  5184 00004ECE 0F851CFEFFFF            jnz L84
  5185                                 
  5186 00004ED4 66A1[00000000]          mov AX,[R9]
  5187 00004EDA 663B05[00000000]        cmp AX,[RO]
  5188 00004EE1 74B9                    jz L91
  5189                                 
  5190 00004EE3 66A1[00000000]          mov AX,[R9]
  5191 00004EE9 660305[00000000]        add AX,[R7]
  5192 00004EF0 66A3[00000000]          mov [R9],AX
  5193                                 
  5194 00004EF6 66A1[00000000]          mov AX,[R9]
  5195 00004EFC 98                      cwde
  5196 00004EFD 05[00000000]            add EAX,list
  5197 00004F02 89C3                    mov EBX,EAX
  5198 00004F04 668B4302                mov AX,[EBX+2]
  5199 00004F08 66A3[00000000]          mov [RT],AX
  5200 00004F0E 668B03                  mov AX,[EBX]
  5201 00004F11 6689C2                  mov DX,AX
  5202 00004F14 6683E203                and DX,3
  5203 00004F18 668915[04000000]        mov [RT+4],DX
  5204 00004F1F 66C1F802                sar AX,2
  5205 00004F23 66A3[02000000]          mov [RT+2],AX
  5206                                 
  5207 00004F29 66A1[02000000]          mov AX,[RS+2]
  5208 00004F2F 663B05[02000000]        cmp AX,[R0+2]
  5209 00004F36 7487                    jz L92
  5210                                 
  5211 00004F38 66A1[00000000]          mov AX,[RS]
  5212 00004F3E 98                      cwde
  5213 00004F3F 05[00000000]            add EAX,list
  5214 00004F44 89C3                    mov EBX,EAX
  5215 00004F46 668B4302                mov AX,[EBX+2]
  5216 00004F4A 66A3[00000000]          mov [RX],AX
  5217 00004F50 668B03                  mov AX,[EBX]
  5218 00004F53 6689C2                  mov DX,AX
  5219 00004F56 6683E203                and DX,3
  5220 00004F5A 668915[04000000]        mov [RX+4],DX
  5221 00004F61 66C1F802                sar AX,2
  5222 00004F65 66A3[02000000]          mov [RX+2],AX
  5223                                 
  5224 00004F6B 66A1[02000000]          mov AX,[RS+2]
  5225 00004F71 662B05[02000000]        sub AX,[R1+2]
  5226 00004F78 66A3[02000000]          mov [RS+2],AX
  5227                                 
  5228 00004F7E 66A1[00000000]          mov AX,[RX]
  5229 00004F84 660305[00000000]        add AX,[R0]
  5230 00004F8B 66A3[00000000]          mov [RS],AX
  5231                                 
  5232 00004F91 66A1[02000000]          mov AX,[RX+2]
  5233 00004F97 660305[02000000]        add AX,[R0+2]
  5234 00004F9E 66A3[02000000]          mov [RJ+2],AX
  5235                                 
  5236 00004FA4 66A1[02000000]          mov AX,[RJ+2]
  5237 00004FAA 663B05[02000000]        cmp AX,[RR+2]
  5238 00004FB1 0F8404FFFFFF            jz L92
  5239                                 
  5240 00004FB7 66A1[02000000]          mov AX,[RJ+2]
  5241 00004FBD 663B05[02000000]        cmp AX,[RN+2]
  5242 00004FC4 0F84DAFCFFFF            jz L83
  5243                                 
  5244 00004FCA 66A1[02000000]          mov AX,[RJ+2]
  5245 00004FD0 663B05[02000000]        cmp AX,[RO+2]
  5246 00004FD7 0F84C7FCFFFF            jz L83
  5247                                 
  5248 00004FDD 66A1[02000000]          mov AX,[RJ+2]
  5249 00004FE3 663B05[02000000]        cmp AX,[RP+2]
  5250 00004FEA 0F84B4FCFFFF            jz L83
  5251                                 
  5252 00004FF0 66A1[02000000]          mov AX,[RJ+2]
  5253 00004FF6 663B05[02000000]        cmp AX,[RQ+2]
  5254 00004FFD 0F84A1FCFFFF            jz L83
  5255                                 
  5256                                 
  5257                                 L93:
  5258                                 
  5259 00005003 BB[00000000]            mov EBX,MB
  5260 00005008 C6430A45                mov byte [EBX+10],069
  5261 0000500C C6430B58                mov byte [EBX+11],088
  5262 00005010 C6430C50                mov byte [EBX+12],080
  5263 00005014 C6430D52                mov byte [EBX+13],082
  5264 00005018 66A1[02000000]          mov AX,[R4+2]
  5265 0000501E 98                      cwde
  5266 0000501F 890424                  mov [ESP],EAX
  5267 00005022 E8(F6FFFFFF)            call iprnt
  5268 00005027 66A3[04000000]          mov [R4+4],AX
  5269                                 
  5270 0000502D 66A1[00000000]          mov AX,[R0]
  5271 00005033 660305[00000000]        add AX,[R0]
  5272 0000503A 66A3[00000000]          mov [RN],AX
  5273                                 
  5274 00005040 66A1[00000000]          mov AX,[RO]
  5275 00005046 660305[00000000]        add AX,[R0]
  5276 0000504D 66A3[00000000]          mov [R9],AX
  5277                                 
  5278 00005053 B8[00000000]            mov EAX,G115
  5279 00005058 2D[00000000]            sub EAX,progr
  5280 0000505D 66A3[00000000]          mov [RB],AX
  5281 00005063 EB0E                    jmp L94
  5282                                 G115:
  5283                                 
  5284 00005065 66A1[00000000]          mov AX,[RP]
  5285 0000506B 98                      cwde
  5286 0000506C 05[00000000]            add EAX,progr
  5287 00005071 89C3                    mov EBX,EAX
  5288 00005073 FFE3                    jmp EBX
  5289                                 
  5290                                 
  5291                                 L94:
  5292                                 
  5293 00005075 66A1[00000000]          mov AX,[RC]
  5294 0000507B 660305[00000000]        add AX,[R0]
  5295 00005082 66A3[00000000]          mov [RX],AX
  5296                                 
  5297 00005088 66A1[00000000]          mov AX,[RJ]
  5298 0000508E 660305[00000000]        add AX,[R0]
  5299 00005095 66A3[00000000]          mov [RY],AX
  5300                                 
  5301 0000509B 66A1[00000000]          mov AX,[R9]
  5302 000050A1 663B05[00000000]        cmp AX,[RC]
  5303 000050A8 0F8DCE000000            jge L96
  5304                                 
  5305 000050AE 66A1[00000000]          mov AX,[R9]
  5306 000050B4 98                      cwde
  5307 000050B5 05[00000000]            add EAX,list
  5308 000050BA 89C3                    mov EBX,EAX
  5309 000050BC 66A1[02000000]          mov AX,[RL+2]
  5310 000050C2 66C1E002                sal AX,2
  5311 000050C6 660B05[04000000]        or AX,[RL+4]
  5312 000050CD 668903                  mov [EBX],AX
  5313 000050D0 66A1[00000000]          mov AX,[RL]
  5314 000050D6 66894302                mov [EBX+2],AX
  5315                                 
  5316                                 
  5317                                 L95:
  5318                                 
  5319 000050DA 66A1[00000000]          mov AX,[RX]
  5320 000050E0 98                      cwde
  5321 000050E1 05[00000000]            add EAX,list
  5322 000050E6 89C3                    mov EBX,EAX
  5323 000050E8 668B4302                mov AX,[EBX+2]
  5324 000050EC 66A3[00000000]          mov [RX],AX
  5325 000050F2 668B03                  mov AX,[EBX]
  5326 000050F5 6689C2                  mov DX,AX
  5327 000050F8 6683E203                and DX,3
  5328 000050FC 668915[04000000]        mov [RX+4],DX
  5329 00005103 66C1F802                sar AX,2
  5330 00005107 66A3[02000000]          mov [RX+2],AX
  5331                                 
  5332 0000510D 66A1[02000000]          mov AX,[RX+2]
  5333 00005113 98                      cwde
  5334 00005114 890424                  mov [ESP],EAX
  5335 00005117 E8(F6FFFFFF)            call iwrch
  5336 0000511C 66A3[04000000]          mov [RX+4],AX
  5337                                 
  5338 00005122 66A1[04000000]          mov AX,[RX+4]
  5339 00005128 663B05[04000000]        cmp AX,[R0+4]
  5340 0000512F 74A7                    jz L95
  5341                                 
  5342 00005131 66A1[02000000]          mov AX,[R4+2]
  5343 00005137 98                      cwde
  5344 00005138 890424                  mov [ESP],EAX
  5345 0000513B E8(F6FFFFFF)            call iwrite
  5346 00005140 66A3[04000000]          mov [R4+4],AX
  5347                                 
  5348 00005146 66A1[04000000]          mov AX,[R4+4]
  5349 0000514C 663B05[04000000]        cmp AX,[R0+4]
  5350 00005153 0F8514010000            jnz L98
  5351                                 
  5352 00005159 66A1[02000000]          mov AX,[RX+2]
  5353 0000515F 663B05[02000000]        cmp AX,[RL+2]
  5354 00005166 7418                    jz L96
  5355                                 
  5356 00005168 66A1[02000000]          mov AX,[RX+2]
  5357 0000516E 98                      cwde
  5358 0000516F 890424                  mov [ESP],EAX
  5359 00005172 E8(F6FFFFFF)            call iwrch
  5360 00005177 66A3[04000000]          mov [RX+4],AX
  5361                                 
  5362 0000517D E953FFFFFF              jmp L95
  5363                                 
  5364                                 
  5365                                 L96:
  5366                                 
  5367 00005182 66A1[00000000]          mov AX,[RY]
  5368 00005188 663B05[00000000]        cmp AX,[R0]
  5369 0000518F 0F84A2F3FFFF            jz L70
  5370                                 
  5371 00005195 66A1[00000000]          mov AX,[RY]
  5372 0000519B 662B05[00000000]        sub AX,[RH]
  5373 000051A2 66A3[00000000]          mov [RY],AX
  5374                                 
  5375 000051A8 66A1[00000000]          mov AX,[RY]
  5376 000051AE 662B05[00000000]        sub AX,[R7]
  5377 000051B5 66A3[00000000]          mov [RX],AX
  5378                                 
  5379 000051BB 66A1[00000000]          mov AX,[RY]
  5380 000051C1 98                      cwde
  5381 000051C2 05[00000000]            add EAX,list
  5382 000051C7 89C3                    mov EBX,EAX
  5383 000051C9 668B4302                mov AX,[EBX+2]
  5384 000051CD 66A3[00000000]          mov [RY],AX
  5385 000051D3 668B03                  mov AX,[EBX]
  5386 000051D6 6689C2                  mov DX,AX
  5387 000051D9 6683E203                and DX,3
  5388 000051DD 668915[04000000]        mov [RY+4],DX
  5389 000051E4 66C1F802                sar AX,2
  5390 000051E8 66A3[02000000]          mov [RY+2],AX
  5391                                 
  5392 000051EE 66A1[00000000]          mov AX,[RX]
  5393 000051F4 98                      cwde
  5394 000051F5 05[00000000]            add EAX,list
  5395 000051FA 89C3                    mov EBX,EAX
  5396 000051FC 668B4302                mov AX,[EBX+2]
  5397 00005200 66A3[00000000]          mov [RX],AX
  5398 00005206 668B03                  mov AX,[EBX]
  5399 00005209 6689C2                  mov DX,AX
  5400 0000520C 6683E203                and DX,3
  5401 00005210 668915[04000000]        mov [RX+4],DX
  5402 00005217 66C1F802                sar AX,2
  5403 0000521B 66A3[02000000]          mov [RX+2],AX
  5404                                 
  5405 00005221 E9AFFEFFFF              jmp L95
  5406                                 
  5407                                 
  5408                                 L97:
  5409                                 
  5410 00005226 BB[00000000]            mov EBX,MB
  5411 0000522B C6430A46                mov byte [EBX+10],070
  5412 0000522F C6430B55                mov byte [EBX+11],085
  5413 00005233 C6430C4C                mov byte [EBX+12],076
  5414 00005237 C6430D4C                mov byte [EBX+13],076
  5415 0000523B 66A1[02000000]          mov AX,[R4+2]
  5416 00005241 98                      cwde
  5417 00005242 890424                  mov [ESP],EAX
  5418 00005245 E8(F6FFFFFF)            call iprnt
  5419 0000524A 66A3[04000000]          mov [R4+4],AX
  5420                                 
  5421 00005250 B8[00000000]            mov EAX,G116
  5422 00005255 2D[00000000]            sub EAX,progr
  5423 0000525A 66A3[00000000]          mov [RB],AX
  5424 00005260 E90BFEFFFF              jmp L94
  5425                                 G116:
  5426                                 
  5427 00005265 31C0                    xor EAX,EAX
  5428 00005267 890424                  mov [ESP],EAX
  5429 0000526A E8(F6FFFFFF)            call exit
  5430 0000526F 5D                      pop EBP
  5431 00005270 31C0                    xor EAX,EAX
  5432 00005272 C3                      ret
  5433                                 
  5434                                 
  5435                                 L98:
  5436                                 
  5437 00005273 BB[00000000]            mov EBX,MB
  5438 00005278 C6430A49                mov byte [EBX+10],073
  5439 0000527C C6430B4F                mov byte [EBX+11],079
  5440 00005280 C6430C43                mov byte [EBX+12],067
  5441 00005284 C6430D48                mov byte [EBX+13],072
  5442 00005288 66A1[02000000]          mov AX,[R4+2]
  5443 0000528E 98                      cwde
  5444 0000528F 890424                  mov [ESP],EAX
  5445 00005292 E8(F6FFFFFF)            call iprnt
  5446 00005297 66A3[04000000]          mov [R4+4],AX
  5447                                 
  5448 0000529D B8[00000000]            mov EAX,G117
  5449 000052A2 2D[00000000]            sub EAX,progr
  5450 000052A7 66A3[00000000]          mov [RB],AX
  5451 000052AD E9BEFDFFFF              jmp L94
  5452                                 G117:
  5453                                 
  5454 000052B2 31C0                    xor EAX,EAX
  5455 000052B4 890424                  mov [ESP],EAX
  5456 000052B7 E8(F6FFFFFF)            call exit
  5457 000052BC 5D                      pop EBP
  5458 000052BD 31C0                    xor EAX,EAX
  5459 000052BF C3                      ret
  5460                                 
  5461                                 
  5462                                  end
  5463                                 .
